ARM GAS  C:\Users\xliu430\AppData\Local\Temp\ccj5POyR.s 			page 1


   1              		.syntax unified
   2              		.cpu cortex-m3
   3              		.fpu softvfp
   4              		.eabi_attribute 20, 1
   5              		.eabi_attribute 21, 1
   6              		.eabi_attribute 23, 3
   7              		.eabi_attribute 24, 1
   8              		.eabi_attribute 25, 1
   9              		.eabi_attribute 26, 1
  10              		.eabi_attribute 30, 1
  11              		.eabi_attribute 34, 1
  12              		.eabi_attribute 18, 4
  13              		.thumb
  14              		.syntax unified
  15              		.file	"PWM_leftmotor.c"
  16              		.text
  17              	.Ltext0:
  18              		.cfi_sections	.debug_frame
  19              		.section	.text.PWM_leftmotor_Enable,"ax",%progbits
  20              		.align	2
  21              		.global	PWM_leftmotor_Enable
  22              		.thumb
  23              		.thumb_func
  24              		.type	PWM_leftmotor_Enable, %function
  25              	PWM_leftmotor_Enable:
  26              	.LFB2:
  27              		.file 1 "Generated_Source\\PSoC5\\PWM_leftmotor.c"
   1:Generated_Source\PSoC5/PWM_leftmotor.c **** /*******************************************************************************
   2:Generated_Source\PSoC5/PWM_leftmotor.c **** * File Name: PWM_leftmotor.c
   3:Generated_Source\PSoC5/PWM_leftmotor.c **** * Version 3.30
   4:Generated_Source\PSoC5/PWM_leftmotor.c **** *
   5:Generated_Source\PSoC5/PWM_leftmotor.c **** * Description:
   6:Generated_Source\PSoC5/PWM_leftmotor.c **** *  The PWM User Module consist of an 8 or 16-bit counter with two 8 or 16-bit
   7:Generated_Source\PSoC5/PWM_leftmotor.c **** *  comparitors. Each instance of this user module is capable of generating
   8:Generated_Source\PSoC5/PWM_leftmotor.c **** *  two PWM outputs with the same period. The pulse width is selectable between
   9:Generated_Source\PSoC5/PWM_leftmotor.c **** *  1 and 255/65535. The period is selectable between 2 and 255/65536 clocks.
  10:Generated_Source\PSoC5/PWM_leftmotor.c **** *  The compare value output may be configured to be active when the present
  11:Generated_Source\PSoC5/PWM_leftmotor.c **** *  counter is less than or less than/equal to the compare value.
  12:Generated_Source\PSoC5/PWM_leftmotor.c **** *  A terminal count output is also provided. It generates a pulse one clock
  13:Generated_Source\PSoC5/PWM_leftmotor.c **** *  width wide when the counter is equal to zero.
  14:Generated_Source\PSoC5/PWM_leftmotor.c **** *
  15:Generated_Source\PSoC5/PWM_leftmotor.c **** * Note:
  16:Generated_Source\PSoC5/PWM_leftmotor.c **** *
  17:Generated_Source\PSoC5/PWM_leftmotor.c **** *******************************************************************************
  18:Generated_Source\PSoC5/PWM_leftmotor.c **** * Copyright 2008-2014, Cypress Semiconductor Corporation.  All rights reserved.
  19:Generated_Source\PSoC5/PWM_leftmotor.c **** * You may use this file only in accordance with the license, terms, conditions,
  20:Generated_Source\PSoC5/PWM_leftmotor.c **** * disclaimers, and limitations in the end user license agreement accompanying
  21:Generated_Source\PSoC5/PWM_leftmotor.c **** * the software package with which this file was provided.
  22:Generated_Source\PSoC5/PWM_leftmotor.c **** ********************************************************************************/
  23:Generated_Source\PSoC5/PWM_leftmotor.c **** 
  24:Generated_Source\PSoC5/PWM_leftmotor.c **** #include "PWM_leftmotor.h"
  25:Generated_Source\PSoC5/PWM_leftmotor.c **** 
  26:Generated_Source\PSoC5/PWM_leftmotor.c **** /* Error message for removed <resource> through optimization */
  27:Generated_Source\PSoC5/PWM_leftmotor.c **** #ifdef PWM_leftmotor_PWMUDB_genblk1_ctrlreg__REMOVED
  28:Generated_Source\PSoC5/PWM_leftmotor.c ****     #error PWM_v3_30 detected with a constant 0 for the enable or \
  29:Generated_Source\PSoC5/PWM_leftmotor.c ****          constant 1 for reset. This will prevent the component from operating.
  30:Generated_Source\PSoC5/PWM_leftmotor.c **** #endif /* PWM_leftmotor_PWMUDB_genblk1_ctrlreg__REMOVED */
ARM GAS  C:\Users\xliu430\AppData\Local\Temp\ccj5POyR.s 			page 2


  31:Generated_Source\PSoC5/PWM_leftmotor.c **** 
  32:Generated_Source\PSoC5/PWM_leftmotor.c **** uint8 PWM_leftmotor_initVar = 0u;
  33:Generated_Source\PSoC5/PWM_leftmotor.c **** 
  34:Generated_Source\PSoC5/PWM_leftmotor.c **** 
  35:Generated_Source\PSoC5/PWM_leftmotor.c **** /*******************************************************************************
  36:Generated_Source\PSoC5/PWM_leftmotor.c **** * Function Name: PWM_leftmotor_Start
  37:Generated_Source\PSoC5/PWM_leftmotor.c **** ********************************************************************************
  38:Generated_Source\PSoC5/PWM_leftmotor.c **** *
  39:Generated_Source\PSoC5/PWM_leftmotor.c **** * Summary:
  40:Generated_Source\PSoC5/PWM_leftmotor.c **** *  The start function initializes the pwm with the default values, the
  41:Generated_Source\PSoC5/PWM_leftmotor.c **** *  enables the counter to begin counting.  It does not enable interrupts,
  42:Generated_Source\PSoC5/PWM_leftmotor.c **** *  the EnableInt command should be called if interrupt generation is required.
  43:Generated_Source\PSoC5/PWM_leftmotor.c **** *
  44:Generated_Source\PSoC5/PWM_leftmotor.c **** * Parameters:
  45:Generated_Source\PSoC5/PWM_leftmotor.c **** *  None
  46:Generated_Source\PSoC5/PWM_leftmotor.c **** *
  47:Generated_Source\PSoC5/PWM_leftmotor.c **** * Return:
  48:Generated_Source\PSoC5/PWM_leftmotor.c **** *  None
  49:Generated_Source\PSoC5/PWM_leftmotor.c **** *
  50:Generated_Source\PSoC5/PWM_leftmotor.c **** * Global variables:
  51:Generated_Source\PSoC5/PWM_leftmotor.c **** *  PWM_leftmotor_initVar: Is modified when this function is called for the
  52:Generated_Source\PSoC5/PWM_leftmotor.c **** *   first time. Is used to ensure that initialization happens only once.
  53:Generated_Source\PSoC5/PWM_leftmotor.c **** *
  54:Generated_Source\PSoC5/PWM_leftmotor.c **** *******************************************************************************/
  55:Generated_Source\PSoC5/PWM_leftmotor.c **** void PWM_leftmotor_Start(void) 
  56:Generated_Source\PSoC5/PWM_leftmotor.c **** {
  57:Generated_Source\PSoC5/PWM_leftmotor.c ****     /* If not Initialized then initialize all required hardware and software */
  58:Generated_Source\PSoC5/PWM_leftmotor.c ****     if(PWM_leftmotor_initVar == 0u)
  59:Generated_Source\PSoC5/PWM_leftmotor.c ****     {
  60:Generated_Source\PSoC5/PWM_leftmotor.c ****         PWM_leftmotor_Init();
  61:Generated_Source\PSoC5/PWM_leftmotor.c ****         PWM_leftmotor_initVar = 1u;
  62:Generated_Source\PSoC5/PWM_leftmotor.c ****     }
  63:Generated_Source\PSoC5/PWM_leftmotor.c ****     PWM_leftmotor_Enable();
  64:Generated_Source\PSoC5/PWM_leftmotor.c **** 
  65:Generated_Source\PSoC5/PWM_leftmotor.c **** }
  66:Generated_Source\PSoC5/PWM_leftmotor.c **** 
  67:Generated_Source\PSoC5/PWM_leftmotor.c **** 
  68:Generated_Source\PSoC5/PWM_leftmotor.c **** /*******************************************************************************
  69:Generated_Source\PSoC5/PWM_leftmotor.c **** * Function Name: PWM_leftmotor_Init
  70:Generated_Source\PSoC5/PWM_leftmotor.c **** ********************************************************************************
  71:Generated_Source\PSoC5/PWM_leftmotor.c **** *
  72:Generated_Source\PSoC5/PWM_leftmotor.c **** * Summary:
  73:Generated_Source\PSoC5/PWM_leftmotor.c **** *  Initialize component's parameters to the parameters set by user in the
  74:Generated_Source\PSoC5/PWM_leftmotor.c **** *  customizer of the component placed onto schematic. Usually called in
  75:Generated_Source\PSoC5/PWM_leftmotor.c **** *  PWM_leftmotor_Start().
  76:Generated_Source\PSoC5/PWM_leftmotor.c **** *
  77:Generated_Source\PSoC5/PWM_leftmotor.c **** * Parameters:
  78:Generated_Source\PSoC5/PWM_leftmotor.c **** *  None
  79:Generated_Source\PSoC5/PWM_leftmotor.c **** *
  80:Generated_Source\PSoC5/PWM_leftmotor.c **** * Return:
  81:Generated_Source\PSoC5/PWM_leftmotor.c **** *  None
  82:Generated_Source\PSoC5/PWM_leftmotor.c **** *
  83:Generated_Source\PSoC5/PWM_leftmotor.c **** *******************************************************************************/
  84:Generated_Source\PSoC5/PWM_leftmotor.c **** void PWM_leftmotor_Init(void) 
  85:Generated_Source\PSoC5/PWM_leftmotor.c **** {
  86:Generated_Source\PSoC5/PWM_leftmotor.c ****     #if (PWM_leftmotor_UsingFixedFunction || PWM_leftmotor_UseControl)
  87:Generated_Source\PSoC5/PWM_leftmotor.c ****         uint8 ctrl;
ARM GAS  C:\Users\xliu430\AppData\Local\Temp\ccj5POyR.s 			page 3


  88:Generated_Source\PSoC5/PWM_leftmotor.c ****     #endif /* (PWM_leftmotor_UsingFixedFunction || PWM_leftmotor_UseControl) */
  89:Generated_Source\PSoC5/PWM_leftmotor.c **** 
  90:Generated_Source\PSoC5/PWM_leftmotor.c ****     #if(!PWM_leftmotor_UsingFixedFunction)
  91:Generated_Source\PSoC5/PWM_leftmotor.c ****         #if(PWM_leftmotor_UseStatus)
  92:Generated_Source\PSoC5/PWM_leftmotor.c ****             /* Interrupt State Backup for Critical Region*/
  93:Generated_Source\PSoC5/PWM_leftmotor.c ****             uint8 PWM_leftmotor_interruptState;
  94:Generated_Source\PSoC5/PWM_leftmotor.c ****         #endif /* (PWM_leftmotor_UseStatus) */
  95:Generated_Source\PSoC5/PWM_leftmotor.c ****     #endif /* (!PWM_leftmotor_UsingFixedFunction) */
  96:Generated_Source\PSoC5/PWM_leftmotor.c **** 
  97:Generated_Source\PSoC5/PWM_leftmotor.c ****     #if (PWM_leftmotor_UsingFixedFunction)
  98:Generated_Source\PSoC5/PWM_leftmotor.c ****         /* You are allowed to write the compare value (FF only) */
  99:Generated_Source\PSoC5/PWM_leftmotor.c ****         PWM_leftmotor_CONTROL |= PWM_leftmotor_CFG0_MODE;
 100:Generated_Source\PSoC5/PWM_leftmotor.c ****         #if (PWM_leftmotor_DeadBand2_4)
 101:Generated_Source\PSoC5/PWM_leftmotor.c ****             PWM_leftmotor_CONTROL |= PWM_leftmotor_CFG0_DB;
 102:Generated_Source\PSoC5/PWM_leftmotor.c ****         #endif /* (PWM_leftmotor_DeadBand2_4) */
 103:Generated_Source\PSoC5/PWM_leftmotor.c **** 
 104:Generated_Source\PSoC5/PWM_leftmotor.c ****         ctrl = PWM_leftmotor_CONTROL3 & ((uint8 )(~PWM_leftmotor_CTRL_CMPMODE1_MASK));
 105:Generated_Source\PSoC5/PWM_leftmotor.c ****         PWM_leftmotor_CONTROL3 = ctrl | PWM_leftmotor_DEFAULT_COMPARE1_MODE;
 106:Generated_Source\PSoC5/PWM_leftmotor.c **** 
 107:Generated_Source\PSoC5/PWM_leftmotor.c ****          /* Clear and Set SYNCTC and SYNCCMP bits of RT1 register */
 108:Generated_Source\PSoC5/PWM_leftmotor.c ****         PWM_leftmotor_RT1 &= ((uint8)(~PWM_leftmotor_RT1_MASK));
 109:Generated_Source\PSoC5/PWM_leftmotor.c ****         PWM_leftmotor_RT1 |= PWM_leftmotor_SYNC;
 110:Generated_Source\PSoC5/PWM_leftmotor.c **** 
 111:Generated_Source\PSoC5/PWM_leftmotor.c ****         /*Enable DSI Sync all all inputs of the PWM*/
 112:Generated_Source\PSoC5/PWM_leftmotor.c ****         PWM_leftmotor_RT1 &= ((uint8)(~PWM_leftmotor_SYNCDSI_MASK));
 113:Generated_Source\PSoC5/PWM_leftmotor.c ****         PWM_leftmotor_RT1 |= PWM_leftmotor_SYNCDSI_EN;
 114:Generated_Source\PSoC5/PWM_leftmotor.c **** 
 115:Generated_Source\PSoC5/PWM_leftmotor.c ****     #elif (PWM_leftmotor_UseControl)
 116:Generated_Source\PSoC5/PWM_leftmotor.c ****         /* Set the default compare mode defined in the parameter */
 117:Generated_Source\PSoC5/PWM_leftmotor.c ****         ctrl = PWM_leftmotor_CONTROL & ((uint8)(~PWM_leftmotor_CTRL_CMPMODE2_MASK)) &
 118:Generated_Source\PSoC5/PWM_leftmotor.c ****                 ((uint8)(~PWM_leftmotor_CTRL_CMPMODE1_MASK));
 119:Generated_Source\PSoC5/PWM_leftmotor.c ****         PWM_leftmotor_CONTROL = ctrl | PWM_leftmotor_DEFAULT_COMPARE2_MODE |
 120:Generated_Source\PSoC5/PWM_leftmotor.c ****                                    PWM_leftmotor_DEFAULT_COMPARE1_MODE;
 121:Generated_Source\PSoC5/PWM_leftmotor.c ****     #endif /* (PWM_leftmotor_UsingFixedFunction) */
 122:Generated_Source\PSoC5/PWM_leftmotor.c **** 
 123:Generated_Source\PSoC5/PWM_leftmotor.c ****     #if (!PWM_leftmotor_UsingFixedFunction)
 124:Generated_Source\PSoC5/PWM_leftmotor.c ****         #if (PWM_leftmotor_Resolution == 8)
 125:Generated_Source\PSoC5/PWM_leftmotor.c ****             /* Set FIFO 0 to 1 byte register for period*/
 126:Generated_Source\PSoC5/PWM_leftmotor.c ****             PWM_leftmotor_AUX_CONTROLDP0 |= (PWM_leftmotor_AUX_CTRL_FIFO0_CLR);
 127:Generated_Source\PSoC5/PWM_leftmotor.c ****         #else /* (PWM_leftmotor_Resolution == 16)*/
 128:Generated_Source\PSoC5/PWM_leftmotor.c ****             /* Set FIFO 0 to 1 byte register for period */
 129:Generated_Source\PSoC5/PWM_leftmotor.c ****             PWM_leftmotor_AUX_CONTROLDP0 |= (PWM_leftmotor_AUX_CTRL_FIFO0_CLR);
 130:Generated_Source\PSoC5/PWM_leftmotor.c ****             PWM_leftmotor_AUX_CONTROLDP1 |= (PWM_leftmotor_AUX_CTRL_FIFO0_CLR);
 131:Generated_Source\PSoC5/PWM_leftmotor.c ****         #endif /* (PWM_leftmotor_Resolution == 8) */
 132:Generated_Source\PSoC5/PWM_leftmotor.c **** 
 133:Generated_Source\PSoC5/PWM_leftmotor.c ****         PWM_leftmotor_WriteCounter(PWM_leftmotor_INIT_PERIOD_VALUE);
 134:Generated_Source\PSoC5/PWM_leftmotor.c ****     #endif /* (!PWM_leftmotor_UsingFixedFunction) */
 135:Generated_Source\PSoC5/PWM_leftmotor.c **** 
 136:Generated_Source\PSoC5/PWM_leftmotor.c ****     PWM_leftmotor_WritePeriod(PWM_leftmotor_INIT_PERIOD_VALUE);
 137:Generated_Source\PSoC5/PWM_leftmotor.c **** 
 138:Generated_Source\PSoC5/PWM_leftmotor.c ****         #if (PWM_leftmotor_UseOneCompareMode)
 139:Generated_Source\PSoC5/PWM_leftmotor.c ****             PWM_leftmotor_WriteCompare(PWM_leftmotor_INIT_COMPARE_VALUE1);
 140:Generated_Source\PSoC5/PWM_leftmotor.c ****         #else
 141:Generated_Source\PSoC5/PWM_leftmotor.c ****             PWM_leftmotor_WriteCompare1(PWM_leftmotor_INIT_COMPARE_VALUE1);
 142:Generated_Source\PSoC5/PWM_leftmotor.c ****             PWM_leftmotor_WriteCompare2(PWM_leftmotor_INIT_COMPARE_VALUE2);
 143:Generated_Source\PSoC5/PWM_leftmotor.c ****         #endif /* (PWM_leftmotor_UseOneCompareMode) */
 144:Generated_Source\PSoC5/PWM_leftmotor.c **** 
ARM GAS  C:\Users\xliu430\AppData\Local\Temp\ccj5POyR.s 			page 4


 145:Generated_Source\PSoC5/PWM_leftmotor.c ****         #if (PWM_leftmotor_KillModeMinTime)
 146:Generated_Source\PSoC5/PWM_leftmotor.c ****             PWM_leftmotor_WriteKillTime(PWM_leftmotor_MinimumKillTime);
 147:Generated_Source\PSoC5/PWM_leftmotor.c ****         #endif /* (PWM_leftmotor_KillModeMinTime) */
 148:Generated_Source\PSoC5/PWM_leftmotor.c **** 
 149:Generated_Source\PSoC5/PWM_leftmotor.c ****         #if (PWM_leftmotor_DeadBandUsed)
 150:Generated_Source\PSoC5/PWM_leftmotor.c ****             PWM_leftmotor_WriteDeadTime(PWM_leftmotor_INIT_DEAD_TIME);
 151:Generated_Source\PSoC5/PWM_leftmotor.c ****         #endif /* (PWM_leftmotor_DeadBandUsed) */
 152:Generated_Source\PSoC5/PWM_leftmotor.c **** 
 153:Generated_Source\PSoC5/PWM_leftmotor.c ****     #if (PWM_leftmotor_UseStatus || PWM_leftmotor_UsingFixedFunction)
 154:Generated_Source\PSoC5/PWM_leftmotor.c ****         PWM_leftmotor_SetInterruptMode(PWM_leftmotor_INIT_INTERRUPTS_MODE);
 155:Generated_Source\PSoC5/PWM_leftmotor.c ****     #endif /* (PWM_leftmotor_UseStatus || PWM_leftmotor_UsingFixedFunction) */
 156:Generated_Source\PSoC5/PWM_leftmotor.c **** 
 157:Generated_Source\PSoC5/PWM_leftmotor.c ****     #if (PWM_leftmotor_UsingFixedFunction)
 158:Generated_Source\PSoC5/PWM_leftmotor.c ****         /* Globally Enable the Fixed Function Block chosen */
 159:Generated_Source\PSoC5/PWM_leftmotor.c ****         PWM_leftmotor_GLOBAL_ENABLE |= PWM_leftmotor_BLOCK_EN_MASK;
 160:Generated_Source\PSoC5/PWM_leftmotor.c ****         /* Set the Interrupt source to come from the status register */
 161:Generated_Source\PSoC5/PWM_leftmotor.c ****         PWM_leftmotor_CONTROL2 |= PWM_leftmotor_CTRL2_IRQ_SEL;
 162:Generated_Source\PSoC5/PWM_leftmotor.c ****     #else
 163:Generated_Source\PSoC5/PWM_leftmotor.c ****         #if(PWM_leftmotor_UseStatus)
 164:Generated_Source\PSoC5/PWM_leftmotor.c **** 
 165:Generated_Source\PSoC5/PWM_leftmotor.c ****             /* CyEnterCriticalRegion and CyExitCriticalRegion are used to mark following region cri
 166:Generated_Source\PSoC5/PWM_leftmotor.c ****             /* Enter Critical Region*/
 167:Generated_Source\PSoC5/PWM_leftmotor.c ****             PWM_leftmotor_interruptState = CyEnterCriticalSection();
 168:Generated_Source\PSoC5/PWM_leftmotor.c ****             /* Use the interrupt output of the status register for IRQ output */
 169:Generated_Source\PSoC5/PWM_leftmotor.c ****             PWM_leftmotor_STATUS_AUX_CTRL |= PWM_leftmotor_STATUS_ACTL_INT_EN_MASK;
 170:Generated_Source\PSoC5/PWM_leftmotor.c **** 
 171:Generated_Source\PSoC5/PWM_leftmotor.c ****              /* Exit Critical Region*/
 172:Generated_Source\PSoC5/PWM_leftmotor.c ****             CyExitCriticalSection(PWM_leftmotor_interruptState);
 173:Generated_Source\PSoC5/PWM_leftmotor.c **** 
 174:Generated_Source\PSoC5/PWM_leftmotor.c ****             /* Clear the FIFO to enable the PWM_leftmotor_STATUS_FIFOFULL
 175:Generated_Source\PSoC5/PWM_leftmotor.c ****                    bit to be set on FIFO full. */
 176:Generated_Source\PSoC5/PWM_leftmotor.c ****             PWM_leftmotor_ClearFIFO();
 177:Generated_Source\PSoC5/PWM_leftmotor.c ****         #endif /* (PWM_leftmotor_UseStatus) */
 178:Generated_Source\PSoC5/PWM_leftmotor.c ****     #endif /* (PWM_leftmotor_UsingFixedFunction) */
 179:Generated_Source\PSoC5/PWM_leftmotor.c **** }
 180:Generated_Source\PSoC5/PWM_leftmotor.c **** 
 181:Generated_Source\PSoC5/PWM_leftmotor.c **** 
 182:Generated_Source\PSoC5/PWM_leftmotor.c **** /*******************************************************************************
 183:Generated_Source\PSoC5/PWM_leftmotor.c **** * Function Name: PWM_leftmotor_Enable
 184:Generated_Source\PSoC5/PWM_leftmotor.c **** ********************************************************************************
 185:Generated_Source\PSoC5/PWM_leftmotor.c **** *
 186:Generated_Source\PSoC5/PWM_leftmotor.c **** * Summary:
 187:Generated_Source\PSoC5/PWM_leftmotor.c **** *  Enables the PWM block operation
 188:Generated_Source\PSoC5/PWM_leftmotor.c **** *
 189:Generated_Source\PSoC5/PWM_leftmotor.c **** * Parameters:
 190:Generated_Source\PSoC5/PWM_leftmotor.c **** *  None
 191:Generated_Source\PSoC5/PWM_leftmotor.c **** *
 192:Generated_Source\PSoC5/PWM_leftmotor.c **** * Return:
 193:Generated_Source\PSoC5/PWM_leftmotor.c **** *  None
 194:Generated_Source\PSoC5/PWM_leftmotor.c **** *
 195:Generated_Source\PSoC5/PWM_leftmotor.c **** * Side Effects:
 196:Generated_Source\PSoC5/PWM_leftmotor.c **** *  This works only if software enable mode is chosen
 197:Generated_Source\PSoC5/PWM_leftmotor.c **** *
 198:Generated_Source\PSoC5/PWM_leftmotor.c **** *******************************************************************************/
 199:Generated_Source\PSoC5/PWM_leftmotor.c **** void PWM_leftmotor_Enable(void) 
 200:Generated_Source\PSoC5/PWM_leftmotor.c **** {
  28              		.loc 1 200 0
ARM GAS  C:\Users\xliu430\AppData\Local\Temp\ccj5POyR.s 			page 5


  29              		.cfi_startproc
  30              		@ args = 0, pretend = 0, frame = 0
  31              		@ frame_needed = 0, uses_anonymous_args = 0
  32              		@ link register save eliminated.
 201:Generated_Source\PSoC5/PWM_leftmotor.c ****     /* Globally Enable the Fixed Function Block chosen */
 202:Generated_Source\PSoC5/PWM_leftmotor.c ****     #if (PWM_leftmotor_UsingFixedFunction)
 203:Generated_Source\PSoC5/PWM_leftmotor.c ****         PWM_leftmotor_GLOBAL_ENABLE |= PWM_leftmotor_BLOCK_EN_MASK;
 204:Generated_Source\PSoC5/PWM_leftmotor.c ****         PWM_leftmotor_GLOBAL_STBY_ENABLE |= PWM_leftmotor_BLOCK_STBY_EN_MASK;
 205:Generated_Source\PSoC5/PWM_leftmotor.c ****     #endif /* (PWM_leftmotor_UsingFixedFunction) */
 206:Generated_Source\PSoC5/PWM_leftmotor.c **** 
 207:Generated_Source\PSoC5/PWM_leftmotor.c ****     /* Enable the PWM from the control register  */
 208:Generated_Source\PSoC5/PWM_leftmotor.c ****     #if (PWM_leftmotor_UseControl || PWM_leftmotor_UsingFixedFunction)
 209:Generated_Source\PSoC5/PWM_leftmotor.c ****         PWM_leftmotor_CONTROL |= PWM_leftmotor_CTRL_ENABLE;
  33              		.loc 1 209 0
  34 0000 024A     		ldr	r2, .L2
  35 0002 1378     		ldrb	r3, [r2]	@ zero_extendqisi2
  36 0004 43F08003 		orr	r3, r3, #128
  37 0008 1370     		strb	r3, [r2]
  38 000a 7047     		bx	lr
  39              	.L3:
  40              		.align	2
  41              	.L2:
  42 000c 7F640040 		.word	1073767551
  43              		.cfi_endproc
  44              	.LFE2:
  45              		.size	PWM_leftmotor_Enable, .-PWM_leftmotor_Enable
  46              		.section	.text.PWM_leftmotor_Stop,"ax",%progbits
  47              		.align	2
  48              		.global	PWM_leftmotor_Stop
  49              		.thumb
  50              		.thumb_func
  51              		.type	PWM_leftmotor_Stop, %function
  52              	PWM_leftmotor_Stop:
  53              	.LFB3:
 210:Generated_Source\PSoC5/PWM_leftmotor.c ****     #endif /* (PWM_leftmotor_UseControl || PWM_leftmotor_UsingFixedFunction) */
 211:Generated_Source\PSoC5/PWM_leftmotor.c **** }
 212:Generated_Source\PSoC5/PWM_leftmotor.c **** 
 213:Generated_Source\PSoC5/PWM_leftmotor.c **** 
 214:Generated_Source\PSoC5/PWM_leftmotor.c **** /*******************************************************************************
 215:Generated_Source\PSoC5/PWM_leftmotor.c **** * Function Name: PWM_leftmotor_Stop
 216:Generated_Source\PSoC5/PWM_leftmotor.c **** ********************************************************************************
 217:Generated_Source\PSoC5/PWM_leftmotor.c **** *
 218:Generated_Source\PSoC5/PWM_leftmotor.c **** * Summary:
 219:Generated_Source\PSoC5/PWM_leftmotor.c **** *  The stop function halts the PWM, but does not change any modes or disable
 220:Generated_Source\PSoC5/PWM_leftmotor.c **** *  interrupts.
 221:Generated_Source\PSoC5/PWM_leftmotor.c **** *
 222:Generated_Source\PSoC5/PWM_leftmotor.c **** * Parameters:
 223:Generated_Source\PSoC5/PWM_leftmotor.c **** *  None
 224:Generated_Source\PSoC5/PWM_leftmotor.c **** *
 225:Generated_Source\PSoC5/PWM_leftmotor.c **** * Return:
 226:Generated_Source\PSoC5/PWM_leftmotor.c **** *  None
 227:Generated_Source\PSoC5/PWM_leftmotor.c **** *
 228:Generated_Source\PSoC5/PWM_leftmotor.c **** * Side Effects:
 229:Generated_Source\PSoC5/PWM_leftmotor.c **** *  If the Enable mode is set to Hardware only then this function
 230:Generated_Source\PSoC5/PWM_leftmotor.c **** *  has no effect on the operation of the PWM
 231:Generated_Source\PSoC5/PWM_leftmotor.c **** *
 232:Generated_Source\PSoC5/PWM_leftmotor.c **** *******************************************************************************/
ARM GAS  C:\Users\xliu430\AppData\Local\Temp\ccj5POyR.s 			page 6


 233:Generated_Source\PSoC5/PWM_leftmotor.c **** void PWM_leftmotor_Stop(void) 
 234:Generated_Source\PSoC5/PWM_leftmotor.c **** {
  54              		.loc 1 234 0
  55              		.cfi_startproc
  56              		@ args = 0, pretend = 0, frame = 0
  57              		@ frame_needed = 0, uses_anonymous_args = 0
  58              		@ link register save eliminated.
 235:Generated_Source\PSoC5/PWM_leftmotor.c ****     #if (PWM_leftmotor_UseControl || PWM_leftmotor_UsingFixedFunction)
 236:Generated_Source\PSoC5/PWM_leftmotor.c ****         PWM_leftmotor_CONTROL &= ((uint8)(~PWM_leftmotor_CTRL_ENABLE));
  59              		.loc 1 236 0
  60 0000 024A     		ldr	r2, .L5
  61 0002 1378     		ldrb	r3, [r2]	@ zero_extendqisi2
  62 0004 03F07F03 		and	r3, r3, #127
  63 0008 1370     		strb	r3, [r2]
  64 000a 7047     		bx	lr
  65              	.L6:
  66              		.align	2
  67              	.L5:
  68 000c 7F640040 		.word	1073767551
  69              		.cfi_endproc
  70              	.LFE3:
  71              		.size	PWM_leftmotor_Stop, .-PWM_leftmotor_Stop
  72              		.section	.text.PWM_leftmotor_SetCompareMode1,"ax",%progbits
  73              		.align	2
  74              		.global	PWM_leftmotor_SetCompareMode1
  75              		.thumb
  76              		.thumb_func
  77              		.type	PWM_leftmotor_SetCompareMode1, %function
  78              	PWM_leftmotor_SetCompareMode1:
  79              	.LFB4:
 237:Generated_Source\PSoC5/PWM_leftmotor.c ****     #endif /* (PWM_leftmotor_UseControl || PWM_leftmotor_UsingFixedFunction) */
 238:Generated_Source\PSoC5/PWM_leftmotor.c **** 
 239:Generated_Source\PSoC5/PWM_leftmotor.c ****     /* Globally disable the Fixed Function Block chosen */
 240:Generated_Source\PSoC5/PWM_leftmotor.c ****     #if (PWM_leftmotor_UsingFixedFunction)
 241:Generated_Source\PSoC5/PWM_leftmotor.c ****         PWM_leftmotor_GLOBAL_ENABLE &= ((uint8)(~PWM_leftmotor_BLOCK_EN_MASK));
 242:Generated_Source\PSoC5/PWM_leftmotor.c ****         PWM_leftmotor_GLOBAL_STBY_ENABLE &= ((uint8)(~PWM_leftmotor_BLOCK_STBY_EN_MASK));
 243:Generated_Source\PSoC5/PWM_leftmotor.c ****     #endif /* (PWM_leftmotor_UsingFixedFunction) */
 244:Generated_Source\PSoC5/PWM_leftmotor.c **** }
 245:Generated_Source\PSoC5/PWM_leftmotor.c **** 
 246:Generated_Source\PSoC5/PWM_leftmotor.c **** #if (PWM_leftmotor_UseOneCompareMode)
 247:Generated_Source\PSoC5/PWM_leftmotor.c ****     #if (PWM_leftmotor_CompareMode1SW)
 248:Generated_Source\PSoC5/PWM_leftmotor.c **** 
 249:Generated_Source\PSoC5/PWM_leftmotor.c **** 
 250:Generated_Source\PSoC5/PWM_leftmotor.c ****         /*******************************************************************************
 251:Generated_Source\PSoC5/PWM_leftmotor.c ****         * Function Name: PWM_leftmotor_SetCompareMode
 252:Generated_Source\PSoC5/PWM_leftmotor.c ****         ********************************************************************************
 253:Generated_Source\PSoC5/PWM_leftmotor.c ****         *
 254:Generated_Source\PSoC5/PWM_leftmotor.c ****         * Summary:
 255:Generated_Source\PSoC5/PWM_leftmotor.c ****         *  This function writes the Compare Mode for the pwm output when in Dither mode,
 256:Generated_Source\PSoC5/PWM_leftmotor.c ****         *  Center Align Mode or One Output Mode.
 257:Generated_Source\PSoC5/PWM_leftmotor.c ****         *
 258:Generated_Source\PSoC5/PWM_leftmotor.c ****         * Parameters:
 259:Generated_Source\PSoC5/PWM_leftmotor.c ****         *  comparemode:  The new compare mode for the PWM output. Use the compare types
 260:Generated_Source\PSoC5/PWM_leftmotor.c ****         *                defined in the H file as input arguments.
 261:Generated_Source\PSoC5/PWM_leftmotor.c ****         *
 262:Generated_Source\PSoC5/PWM_leftmotor.c ****         * Return:
 263:Generated_Source\PSoC5/PWM_leftmotor.c ****         *  None
ARM GAS  C:\Users\xliu430\AppData\Local\Temp\ccj5POyR.s 			page 7


 264:Generated_Source\PSoC5/PWM_leftmotor.c ****         *
 265:Generated_Source\PSoC5/PWM_leftmotor.c ****         *******************************************************************************/
 266:Generated_Source\PSoC5/PWM_leftmotor.c ****         void PWM_leftmotor_SetCompareMode(uint8 comparemode) 
 267:Generated_Source\PSoC5/PWM_leftmotor.c ****         {
 268:Generated_Source\PSoC5/PWM_leftmotor.c ****             #if(PWM_leftmotor_UsingFixedFunction)
 269:Generated_Source\PSoC5/PWM_leftmotor.c **** 
 270:Generated_Source\PSoC5/PWM_leftmotor.c ****                 #if(0 != PWM_leftmotor_CTRL_CMPMODE1_SHIFT)
 271:Generated_Source\PSoC5/PWM_leftmotor.c ****                     uint8 comparemodemasked = ((uint8)((uint8)comparemode << PWM_leftmotor_CTRL_CMP
 272:Generated_Source\PSoC5/PWM_leftmotor.c ****                 #else
 273:Generated_Source\PSoC5/PWM_leftmotor.c ****                     uint8 comparemodemasked = comparemode;
 274:Generated_Source\PSoC5/PWM_leftmotor.c ****                 #endif /* (0 != PWM_leftmotor_CTRL_CMPMODE1_SHIFT) */
 275:Generated_Source\PSoC5/PWM_leftmotor.c **** 
 276:Generated_Source\PSoC5/PWM_leftmotor.c ****                 PWM_leftmotor_CONTROL3 &= ((uint8)(~PWM_leftmotor_CTRL_CMPMODE1_MASK)); /*Clear Exi
 277:Generated_Source\PSoC5/PWM_leftmotor.c ****                 PWM_leftmotor_CONTROL3 |= comparemodemasked;
 278:Generated_Source\PSoC5/PWM_leftmotor.c **** 
 279:Generated_Source\PSoC5/PWM_leftmotor.c ****             #elif (PWM_leftmotor_UseControl)
 280:Generated_Source\PSoC5/PWM_leftmotor.c **** 
 281:Generated_Source\PSoC5/PWM_leftmotor.c ****                 #if(0 != PWM_leftmotor_CTRL_CMPMODE1_SHIFT)
 282:Generated_Source\PSoC5/PWM_leftmotor.c ****                     uint8 comparemode1masked = ((uint8)((uint8)comparemode << PWM_leftmotor_CTRL_CM
 283:Generated_Source\PSoC5/PWM_leftmotor.c ****                                                 PWM_leftmotor_CTRL_CMPMODE1_MASK;
 284:Generated_Source\PSoC5/PWM_leftmotor.c ****                 #else
 285:Generated_Source\PSoC5/PWM_leftmotor.c ****                     uint8 comparemode1masked = comparemode & PWM_leftmotor_CTRL_CMPMODE1_MASK;
 286:Generated_Source\PSoC5/PWM_leftmotor.c ****                 #endif /* (0 != PWM_leftmotor_CTRL_CMPMODE1_SHIFT) */
 287:Generated_Source\PSoC5/PWM_leftmotor.c **** 
 288:Generated_Source\PSoC5/PWM_leftmotor.c ****                 #if(0 != PWM_leftmotor_CTRL_CMPMODE2_SHIFT)
 289:Generated_Source\PSoC5/PWM_leftmotor.c ****                     uint8 comparemode2masked = ((uint8)((uint8)comparemode << PWM_leftmotor_CTRL_CM
 290:Generated_Source\PSoC5/PWM_leftmotor.c ****                                                PWM_leftmotor_CTRL_CMPMODE2_MASK;
 291:Generated_Source\PSoC5/PWM_leftmotor.c ****                 #else
 292:Generated_Source\PSoC5/PWM_leftmotor.c ****                     uint8 comparemode2masked = comparemode & PWM_leftmotor_CTRL_CMPMODE2_MASK;
 293:Generated_Source\PSoC5/PWM_leftmotor.c ****                 #endif /* (0 != PWM_leftmotor_CTRL_CMPMODE2_SHIFT) */
 294:Generated_Source\PSoC5/PWM_leftmotor.c **** 
 295:Generated_Source\PSoC5/PWM_leftmotor.c ****                 /*Clear existing mode */
 296:Generated_Source\PSoC5/PWM_leftmotor.c ****                 PWM_leftmotor_CONTROL &= ((uint8)(~(PWM_leftmotor_CTRL_CMPMODE1_MASK |
 297:Generated_Source\PSoC5/PWM_leftmotor.c ****                                             PWM_leftmotor_CTRL_CMPMODE2_MASK)));
 298:Generated_Source\PSoC5/PWM_leftmotor.c ****                 PWM_leftmotor_CONTROL |= (comparemode1masked | comparemode2masked);
 299:Generated_Source\PSoC5/PWM_leftmotor.c **** 
 300:Generated_Source\PSoC5/PWM_leftmotor.c ****             #else
 301:Generated_Source\PSoC5/PWM_leftmotor.c ****                 uint8 temp = comparemode;
 302:Generated_Source\PSoC5/PWM_leftmotor.c ****             #endif /* (PWM_leftmotor_UsingFixedFunction) */
 303:Generated_Source\PSoC5/PWM_leftmotor.c ****         }
 304:Generated_Source\PSoC5/PWM_leftmotor.c ****     #endif /* PWM_leftmotor_CompareMode1SW */
 305:Generated_Source\PSoC5/PWM_leftmotor.c **** 
 306:Generated_Source\PSoC5/PWM_leftmotor.c **** #else /* UseOneCompareMode */
 307:Generated_Source\PSoC5/PWM_leftmotor.c **** 
 308:Generated_Source\PSoC5/PWM_leftmotor.c ****     #if (PWM_leftmotor_CompareMode1SW)
 309:Generated_Source\PSoC5/PWM_leftmotor.c **** 
 310:Generated_Source\PSoC5/PWM_leftmotor.c **** 
 311:Generated_Source\PSoC5/PWM_leftmotor.c ****         /*******************************************************************************
 312:Generated_Source\PSoC5/PWM_leftmotor.c ****         * Function Name: PWM_leftmotor_SetCompareMode1
 313:Generated_Source\PSoC5/PWM_leftmotor.c ****         ********************************************************************************
 314:Generated_Source\PSoC5/PWM_leftmotor.c ****         *
 315:Generated_Source\PSoC5/PWM_leftmotor.c ****         * Summary:
 316:Generated_Source\PSoC5/PWM_leftmotor.c ****         *  This function writes the Compare Mode for the pwm or pwm1 output
 317:Generated_Source\PSoC5/PWM_leftmotor.c ****         *
 318:Generated_Source\PSoC5/PWM_leftmotor.c ****         * Parameters:
 319:Generated_Source\PSoC5/PWM_leftmotor.c ****         *  comparemode:  The new compare mode for the PWM output. Use the compare types
 320:Generated_Source\PSoC5/PWM_leftmotor.c ****         *                defined in the H file as input arguments.
ARM GAS  C:\Users\xliu430\AppData\Local\Temp\ccj5POyR.s 			page 8


 321:Generated_Source\PSoC5/PWM_leftmotor.c ****         *
 322:Generated_Source\PSoC5/PWM_leftmotor.c ****         * Return:
 323:Generated_Source\PSoC5/PWM_leftmotor.c ****         *  None
 324:Generated_Source\PSoC5/PWM_leftmotor.c ****         *
 325:Generated_Source\PSoC5/PWM_leftmotor.c ****         *******************************************************************************/
 326:Generated_Source\PSoC5/PWM_leftmotor.c ****         void PWM_leftmotor_SetCompareMode1(uint8 comparemode) 
 327:Generated_Source\PSoC5/PWM_leftmotor.c ****         {
  80              		.loc 1 327 0
  81              		.cfi_startproc
  82              		@ args = 0, pretend = 0, frame = 0
  83              		@ frame_needed = 0, uses_anonymous_args = 0
  84              		@ link register save eliminated.
  85              	.LVL0:
 328:Generated_Source\PSoC5/PWM_leftmotor.c ****             #if(0 != PWM_leftmotor_CTRL_CMPMODE1_SHIFT)
 329:Generated_Source\PSoC5/PWM_leftmotor.c ****                 uint8 comparemodemasked = ((uint8)((uint8)comparemode << PWM_leftmotor_CTRL_CMPMODE
 330:Generated_Source\PSoC5/PWM_leftmotor.c ****                                            PWM_leftmotor_CTRL_CMPMODE1_MASK;
 331:Generated_Source\PSoC5/PWM_leftmotor.c ****             #else
 332:Generated_Source\PSoC5/PWM_leftmotor.c ****                 uint8 comparemodemasked = comparemode & PWM_leftmotor_CTRL_CMPMODE1_MASK;
  86              		.loc 1 332 0
  87 0000 00F00700 		and	r0, r0, #7
  88              	.LVL1:
 333:Generated_Source\PSoC5/PWM_leftmotor.c ****             #endif /* (0 != PWM_leftmotor_CTRL_CMPMODE1_SHIFT) */
 334:Generated_Source\PSoC5/PWM_leftmotor.c **** 
 335:Generated_Source\PSoC5/PWM_leftmotor.c ****             #if (PWM_leftmotor_UseControl)
 336:Generated_Source\PSoC5/PWM_leftmotor.c ****                 PWM_leftmotor_CONTROL &= ((uint8)(~PWM_leftmotor_CTRL_CMPMODE1_MASK)); /*Clear exis
  89              		.loc 1 336 0
  90 0004 044B     		ldr	r3, .L8
  91 0006 1A78     		ldrb	r2, [r3]	@ zero_extendqisi2
  92 0008 02F0F802 		and	r2, r2, #248
  93 000c 1A70     		strb	r2, [r3]
 337:Generated_Source\PSoC5/PWM_leftmotor.c ****                 PWM_leftmotor_CONTROL |= comparemodemasked;
  94              		.loc 1 337 0
  95 000e 1A78     		ldrb	r2, [r3]	@ zero_extendqisi2
  96 0010 1043     		orrs	r0, r0, r2
  97              	.LVL2:
  98 0012 1870     		strb	r0, [r3]
  99 0014 7047     		bx	lr
 100              	.L9:
 101 0016 00BF     		.align	2
 102              	.L8:
 103 0018 7F640040 		.word	1073767551
 104              		.cfi_endproc
 105              	.LFE4:
 106              		.size	PWM_leftmotor_SetCompareMode1, .-PWM_leftmotor_SetCompareMode1
 107              		.section	.text.PWM_leftmotor_SetCompareMode2,"ax",%progbits
 108              		.align	2
 109              		.global	PWM_leftmotor_SetCompareMode2
 110              		.thumb
 111              		.thumb_func
 112              		.type	PWM_leftmotor_SetCompareMode2, %function
 113              	PWM_leftmotor_SetCompareMode2:
 114              	.LFB5:
 338:Generated_Source\PSoC5/PWM_leftmotor.c ****             #endif /* (PWM_leftmotor_UseControl) */
 339:Generated_Source\PSoC5/PWM_leftmotor.c ****         }
 340:Generated_Source\PSoC5/PWM_leftmotor.c ****     #endif /* PWM_leftmotor_CompareMode1SW */
 341:Generated_Source\PSoC5/PWM_leftmotor.c **** 
 342:Generated_Source\PSoC5/PWM_leftmotor.c **** #if (PWM_leftmotor_CompareMode2SW)
ARM GAS  C:\Users\xliu430\AppData\Local\Temp\ccj5POyR.s 			page 9


 343:Generated_Source\PSoC5/PWM_leftmotor.c **** 
 344:Generated_Source\PSoC5/PWM_leftmotor.c **** 
 345:Generated_Source\PSoC5/PWM_leftmotor.c ****     /*******************************************************************************
 346:Generated_Source\PSoC5/PWM_leftmotor.c ****     * Function Name: PWM_leftmotor_SetCompareMode2
 347:Generated_Source\PSoC5/PWM_leftmotor.c ****     ********************************************************************************
 348:Generated_Source\PSoC5/PWM_leftmotor.c ****     *
 349:Generated_Source\PSoC5/PWM_leftmotor.c ****     * Summary:
 350:Generated_Source\PSoC5/PWM_leftmotor.c ****     *  This function writes the Compare Mode for the pwm or pwm2 output
 351:Generated_Source\PSoC5/PWM_leftmotor.c ****     *
 352:Generated_Source\PSoC5/PWM_leftmotor.c ****     * Parameters:
 353:Generated_Source\PSoC5/PWM_leftmotor.c ****     *  comparemode:  The new compare mode for the PWM output. Use the compare types
 354:Generated_Source\PSoC5/PWM_leftmotor.c ****     *                defined in the H file as input arguments.
 355:Generated_Source\PSoC5/PWM_leftmotor.c ****     *
 356:Generated_Source\PSoC5/PWM_leftmotor.c ****     * Return:
 357:Generated_Source\PSoC5/PWM_leftmotor.c ****     *  None
 358:Generated_Source\PSoC5/PWM_leftmotor.c ****     *
 359:Generated_Source\PSoC5/PWM_leftmotor.c ****     *******************************************************************************/
 360:Generated_Source\PSoC5/PWM_leftmotor.c ****     void PWM_leftmotor_SetCompareMode2(uint8 comparemode) 
 361:Generated_Source\PSoC5/PWM_leftmotor.c ****     {
 115              		.loc 1 361 0
 116              		.cfi_startproc
 117              		@ args = 0, pretend = 0, frame = 0
 118              		@ frame_needed = 0, uses_anonymous_args = 0
 119              		@ link register save eliminated.
 120              	.LVL3:
 362:Generated_Source\PSoC5/PWM_leftmotor.c **** 
 363:Generated_Source\PSoC5/PWM_leftmotor.c ****         #if(0 != PWM_leftmotor_CTRL_CMPMODE2_SHIFT)
 364:Generated_Source\PSoC5/PWM_leftmotor.c ****             uint8 comparemodemasked = ((uint8)((uint8)comparemode << PWM_leftmotor_CTRL_CMPMODE2_SH
 121              		.loc 1 364 0
 122 0000 C000     		lsls	r0, r0, #3
 123              	.LVL4:
 124 0002 00F03800 		and	r0, r0, #56
 125              	.LVL5:
 365:Generated_Source\PSoC5/PWM_leftmotor.c ****                                                  PWM_leftmotor_CTRL_CMPMODE2_MASK;
 366:Generated_Source\PSoC5/PWM_leftmotor.c ****         #else
 367:Generated_Source\PSoC5/PWM_leftmotor.c ****             uint8 comparemodemasked = comparemode & PWM_leftmotor_CTRL_CMPMODE2_MASK;
 368:Generated_Source\PSoC5/PWM_leftmotor.c ****         #endif /* (0 != PWM_leftmotor_CTRL_CMPMODE2_SHIFT) */
 369:Generated_Source\PSoC5/PWM_leftmotor.c **** 
 370:Generated_Source\PSoC5/PWM_leftmotor.c ****         #if (PWM_leftmotor_UseControl)
 371:Generated_Source\PSoC5/PWM_leftmotor.c ****             PWM_leftmotor_CONTROL &= ((uint8)(~PWM_leftmotor_CTRL_CMPMODE2_MASK)); /*Clear existing
 126              		.loc 1 371 0
 127 0006 044B     		ldr	r3, .L11
 128 0008 1A78     		ldrb	r2, [r3]	@ zero_extendqisi2
 129 000a 02F0C702 		and	r2, r2, #199
 130 000e 1A70     		strb	r2, [r3]
 372:Generated_Source\PSoC5/PWM_leftmotor.c ****             PWM_leftmotor_CONTROL |= comparemodemasked;
 131              		.loc 1 372 0
 132 0010 1A78     		ldrb	r2, [r3]	@ zero_extendqisi2
 133 0012 1043     		orrs	r0, r0, r2
 134              	.LVL6:
 135 0014 1870     		strb	r0, [r3]
 136 0016 7047     		bx	lr
 137              	.L12:
 138              		.align	2
 139              	.L11:
 140 0018 7F640040 		.word	1073767551
 141              		.cfi_endproc
ARM GAS  C:\Users\xliu430\AppData\Local\Temp\ccj5POyR.s 			page 10


 142              	.LFE5:
 143              		.size	PWM_leftmotor_SetCompareMode2, .-PWM_leftmotor_SetCompareMode2
 144              		.section	.text.PWM_leftmotor_WriteCounter,"ax",%progbits
 145              		.align	2
 146              		.global	PWM_leftmotor_WriteCounter
 147              		.thumb
 148              		.thumb_func
 149              		.type	PWM_leftmotor_WriteCounter, %function
 150              	PWM_leftmotor_WriteCounter:
 151              	.LFB6:
 373:Generated_Source\PSoC5/PWM_leftmotor.c ****         #endif /* (PWM_leftmotor_UseControl) */
 374:Generated_Source\PSoC5/PWM_leftmotor.c ****     }
 375:Generated_Source\PSoC5/PWM_leftmotor.c ****     #endif /*PWM_leftmotor_CompareMode2SW */
 376:Generated_Source\PSoC5/PWM_leftmotor.c **** 
 377:Generated_Source\PSoC5/PWM_leftmotor.c **** #endif /* UseOneCompareMode */
 378:Generated_Source\PSoC5/PWM_leftmotor.c **** 
 379:Generated_Source\PSoC5/PWM_leftmotor.c **** 
 380:Generated_Source\PSoC5/PWM_leftmotor.c **** #if (!PWM_leftmotor_UsingFixedFunction)
 381:Generated_Source\PSoC5/PWM_leftmotor.c **** 
 382:Generated_Source\PSoC5/PWM_leftmotor.c **** 
 383:Generated_Source\PSoC5/PWM_leftmotor.c ****     /*******************************************************************************
 384:Generated_Source\PSoC5/PWM_leftmotor.c ****     * Function Name: PWM_leftmotor_WriteCounter
 385:Generated_Source\PSoC5/PWM_leftmotor.c ****     ********************************************************************************
 386:Generated_Source\PSoC5/PWM_leftmotor.c ****     *
 387:Generated_Source\PSoC5/PWM_leftmotor.c ****     * Summary:
 388:Generated_Source\PSoC5/PWM_leftmotor.c ****     *  Writes a new counter value directly to the counter register. This will be
 389:Generated_Source\PSoC5/PWM_leftmotor.c ****     *  implemented for that currently running period and only that period. This API
 390:Generated_Source\PSoC5/PWM_leftmotor.c ****     *  is valid only for UDB implementation and not available for fixed function
 391:Generated_Source\PSoC5/PWM_leftmotor.c ****     *  PWM implementation.
 392:Generated_Source\PSoC5/PWM_leftmotor.c ****     *
 393:Generated_Source\PSoC5/PWM_leftmotor.c ****     * Parameters:
 394:Generated_Source\PSoC5/PWM_leftmotor.c ****     *  counter:  The period new period counter value.
 395:Generated_Source\PSoC5/PWM_leftmotor.c ****     *
 396:Generated_Source\PSoC5/PWM_leftmotor.c ****     * Return:
 397:Generated_Source\PSoC5/PWM_leftmotor.c ****     *  None
 398:Generated_Source\PSoC5/PWM_leftmotor.c ****     *
 399:Generated_Source\PSoC5/PWM_leftmotor.c ****     * Side Effects:
 400:Generated_Source\PSoC5/PWM_leftmotor.c ****     *  The PWM Period will be reloaded when a counter value will be a zero
 401:Generated_Source\PSoC5/PWM_leftmotor.c ****     *
 402:Generated_Source\PSoC5/PWM_leftmotor.c ****     *******************************************************************************/
 403:Generated_Source\PSoC5/PWM_leftmotor.c ****     void PWM_leftmotor_WriteCounter(uint8 counter) \
 404:Generated_Source\PSoC5/PWM_leftmotor.c ****                                        
 405:Generated_Source\PSoC5/PWM_leftmotor.c ****     {
 152              		.loc 1 405 0
 153              		.cfi_startproc
 154              		@ args = 0, pretend = 0, frame = 0
 155              		@ frame_needed = 0, uses_anonymous_args = 0
 156              		@ link register save eliminated.
 157              	.LVL7:
 406:Generated_Source\PSoC5/PWM_leftmotor.c ****         CY_SET_REG8(PWM_leftmotor_COUNTER_LSB_PTR, counter);
 158              		.loc 1 406 0
 159 0000 014B     		ldr	r3, .L14
 160 0002 1870     		strb	r0, [r3]
 161 0004 7047     		bx	lr
 162              	.L15:
 163 0006 00BF     		.align	2
 164              	.L14:
ARM GAS  C:\Users\xliu430\AppData\Local\Temp\ccj5POyR.s 			page 11


 165 0008 0F640040 		.word	1073767439
 166              		.cfi_endproc
 167              	.LFE6:
 168              		.size	PWM_leftmotor_WriteCounter, .-PWM_leftmotor_WriteCounter
 169              		.section	.text.PWM_leftmotor_ReadCounter,"ax",%progbits
 170              		.align	2
 171              		.global	PWM_leftmotor_ReadCounter
 172              		.thumb
 173              		.thumb_func
 174              		.type	PWM_leftmotor_ReadCounter, %function
 175              	PWM_leftmotor_ReadCounter:
 176              	.LFB7:
 407:Generated_Source\PSoC5/PWM_leftmotor.c ****     }
 408:Generated_Source\PSoC5/PWM_leftmotor.c **** 
 409:Generated_Source\PSoC5/PWM_leftmotor.c **** 
 410:Generated_Source\PSoC5/PWM_leftmotor.c ****     /*******************************************************************************
 411:Generated_Source\PSoC5/PWM_leftmotor.c ****     * Function Name: PWM_leftmotor_ReadCounter
 412:Generated_Source\PSoC5/PWM_leftmotor.c ****     ********************************************************************************
 413:Generated_Source\PSoC5/PWM_leftmotor.c ****     *
 414:Generated_Source\PSoC5/PWM_leftmotor.c ****     * Summary:
 415:Generated_Source\PSoC5/PWM_leftmotor.c ****     *  This function returns the current value of the counter.  It doesn't matter
 416:Generated_Source\PSoC5/PWM_leftmotor.c ****     *  if the counter is enabled or running.
 417:Generated_Source\PSoC5/PWM_leftmotor.c ****     *
 418:Generated_Source\PSoC5/PWM_leftmotor.c ****     * Parameters:
 419:Generated_Source\PSoC5/PWM_leftmotor.c ****     *  None
 420:Generated_Source\PSoC5/PWM_leftmotor.c ****     *
 421:Generated_Source\PSoC5/PWM_leftmotor.c ****     * Return:
 422:Generated_Source\PSoC5/PWM_leftmotor.c ****     *  The current value of the counter.
 423:Generated_Source\PSoC5/PWM_leftmotor.c ****     *
 424:Generated_Source\PSoC5/PWM_leftmotor.c ****     *******************************************************************************/
 425:Generated_Source\PSoC5/PWM_leftmotor.c ****     uint8 PWM_leftmotor_ReadCounter(void) 
 426:Generated_Source\PSoC5/PWM_leftmotor.c ****     {
 177              		.loc 1 426 0
 178              		.cfi_startproc
 179              		@ args = 0, pretend = 0, frame = 0
 180              		@ frame_needed = 0, uses_anonymous_args = 0
 181              		@ link register save eliminated.
 427:Generated_Source\PSoC5/PWM_leftmotor.c ****         /* Force capture by reading Accumulator */
 428:Generated_Source\PSoC5/PWM_leftmotor.c ****         /* Must first do a software capture to be able to read the counter */
 429:Generated_Source\PSoC5/PWM_leftmotor.c ****         /* It is up to the user code to make sure there isn't already captured data in the FIFO */
 430:Generated_Source\PSoC5/PWM_leftmotor.c ****           (void)CY_GET_REG8(PWM_leftmotor_COUNTERCAP_LSB_PTR_8BIT);
 182              		.loc 1 430 0
 183 0000 024B     		ldr	r3, .L17
 184 0002 1B78     		ldrb	r3, [r3]	@ zero_extendqisi2
 431:Generated_Source\PSoC5/PWM_leftmotor.c **** 
 432:Generated_Source\PSoC5/PWM_leftmotor.c ****         /* Read the data from the FIFO */
 433:Generated_Source\PSoC5/PWM_leftmotor.c ****         return (CY_GET_REG8(PWM_leftmotor_CAPTURE_LSB_PTR));
 185              		.loc 1 433 0
 186 0004 024B     		ldr	r3, .L17+4
 187 0006 1878     		ldrb	r0, [r3]	@ zero_extendqisi2
 434:Generated_Source\PSoC5/PWM_leftmotor.c ****     }
 188              		.loc 1 434 0
 189 0008 7047     		bx	lr
 190              	.L18:
 191 000a 00BF     		.align	2
 192              	.L17:
 193 000c 1F640040 		.word	1073767455
ARM GAS  C:\Users\xliu430\AppData\Local\Temp\ccj5POyR.s 			page 12


 194 0010 5F640040 		.word	1073767519
 195              		.cfi_endproc
 196              	.LFE7:
 197              		.size	PWM_leftmotor_ReadCounter, .-PWM_leftmotor_ReadCounter
 198              		.section	.text.PWM_leftmotor_WritePeriod,"ax",%progbits
 199              		.align	2
 200              		.global	PWM_leftmotor_WritePeriod
 201              		.thumb
 202              		.thumb_func
 203              		.type	PWM_leftmotor_WritePeriod, %function
 204              	PWM_leftmotor_WritePeriod:
 205              	.LFB9:
 435:Generated_Source\PSoC5/PWM_leftmotor.c **** 
 436:Generated_Source\PSoC5/PWM_leftmotor.c ****     #if (PWM_leftmotor_UseStatus)
 437:Generated_Source\PSoC5/PWM_leftmotor.c **** 
 438:Generated_Source\PSoC5/PWM_leftmotor.c **** 
 439:Generated_Source\PSoC5/PWM_leftmotor.c ****         /*******************************************************************************
 440:Generated_Source\PSoC5/PWM_leftmotor.c ****         * Function Name: PWM_leftmotor_ClearFIFO
 441:Generated_Source\PSoC5/PWM_leftmotor.c ****         ********************************************************************************
 442:Generated_Source\PSoC5/PWM_leftmotor.c ****         *
 443:Generated_Source\PSoC5/PWM_leftmotor.c ****         * Summary:
 444:Generated_Source\PSoC5/PWM_leftmotor.c ****         *  This function clears all capture data from the capture FIFO
 445:Generated_Source\PSoC5/PWM_leftmotor.c ****         *
 446:Generated_Source\PSoC5/PWM_leftmotor.c ****         * Parameters:
 447:Generated_Source\PSoC5/PWM_leftmotor.c ****         *  None
 448:Generated_Source\PSoC5/PWM_leftmotor.c ****         *
 449:Generated_Source\PSoC5/PWM_leftmotor.c ****         * Return:
 450:Generated_Source\PSoC5/PWM_leftmotor.c ****         *  None
 451:Generated_Source\PSoC5/PWM_leftmotor.c ****         *
 452:Generated_Source\PSoC5/PWM_leftmotor.c ****         *******************************************************************************/
 453:Generated_Source\PSoC5/PWM_leftmotor.c ****         void PWM_leftmotor_ClearFIFO(void) 
 454:Generated_Source\PSoC5/PWM_leftmotor.c ****         {
 455:Generated_Source\PSoC5/PWM_leftmotor.c ****             while(0u != (PWM_leftmotor_ReadStatusRegister() & PWM_leftmotor_STATUS_FIFONEMPTY))
 456:Generated_Source\PSoC5/PWM_leftmotor.c ****             {
 457:Generated_Source\PSoC5/PWM_leftmotor.c ****                 (void)PWM_leftmotor_ReadCapture();
 458:Generated_Source\PSoC5/PWM_leftmotor.c ****             }
 459:Generated_Source\PSoC5/PWM_leftmotor.c ****         }
 460:Generated_Source\PSoC5/PWM_leftmotor.c **** 
 461:Generated_Source\PSoC5/PWM_leftmotor.c ****     #endif /* PWM_leftmotor_UseStatus */
 462:Generated_Source\PSoC5/PWM_leftmotor.c **** 
 463:Generated_Source\PSoC5/PWM_leftmotor.c **** #endif /* !PWM_leftmotor_UsingFixedFunction */
 464:Generated_Source\PSoC5/PWM_leftmotor.c **** 
 465:Generated_Source\PSoC5/PWM_leftmotor.c **** 
 466:Generated_Source\PSoC5/PWM_leftmotor.c **** /*******************************************************************************
 467:Generated_Source\PSoC5/PWM_leftmotor.c **** * Function Name: PWM_leftmotor_WritePeriod
 468:Generated_Source\PSoC5/PWM_leftmotor.c **** ********************************************************************************
 469:Generated_Source\PSoC5/PWM_leftmotor.c **** *
 470:Generated_Source\PSoC5/PWM_leftmotor.c **** * Summary:
 471:Generated_Source\PSoC5/PWM_leftmotor.c **** *  This function is used to change the period of the counter.  The new period
 472:Generated_Source\PSoC5/PWM_leftmotor.c **** *  will be loaded the next time terminal count is detected.
 473:Generated_Source\PSoC5/PWM_leftmotor.c **** *
 474:Generated_Source\PSoC5/PWM_leftmotor.c **** * Parameters:
 475:Generated_Source\PSoC5/PWM_leftmotor.c **** *  period:  Period value. May be between 1 and (2^Resolution)-1.  A value of 0
 476:Generated_Source\PSoC5/PWM_leftmotor.c **** *           will result in the counter remaining at zero.
 477:Generated_Source\PSoC5/PWM_leftmotor.c **** *
 478:Generated_Source\PSoC5/PWM_leftmotor.c **** * Return:
 479:Generated_Source\PSoC5/PWM_leftmotor.c **** *  None
ARM GAS  C:\Users\xliu430\AppData\Local\Temp\ccj5POyR.s 			page 13


 480:Generated_Source\PSoC5/PWM_leftmotor.c **** *
 481:Generated_Source\PSoC5/PWM_leftmotor.c **** *******************************************************************************/
 482:Generated_Source\PSoC5/PWM_leftmotor.c **** void PWM_leftmotor_WritePeriod(uint8 period) 
 483:Generated_Source\PSoC5/PWM_leftmotor.c **** {
 206              		.loc 1 483 0
 207              		.cfi_startproc
 208              		@ args = 0, pretend = 0, frame = 0
 209              		@ frame_needed = 0, uses_anonymous_args = 0
 210              		@ link register save eliminated.
 211              	.LVL8:
 484:Generated_Source\PSoC5/PWM_leftmotor.c ****     #if(PWM_leftmotor_UsingFixedFunction)
 485:Generated_Source\PSoC5/PWM_leftmotor.c ****         CY_SET_REG16(PWM_leftmotor_PERIOD_LSB_PTR, (uint16)period);
 486:Generated_Source\PSoC5/PWM_leftmotor.c ****     #else
 487:Generated_Source\PSoC5/PWM_leftmotor.c ****         CY_SET_REG8(PWM_leftmotor_PERIOD_LSB_PTR, period);
 212              		.loc 1 487 0
 213 0000 014B     		ldr	r3, .L20
 214 0002 1870     		strb	r0, [r3]
 215 0004 7047     		bx	lr
 216              	.L21:
 217 0006 00BF     		.align	2
 218              	.L20:
 219 0008 4F640040 		.word	1073767503
 220              		.cfi_endproc
 221              	.LFE9:
 222              		.size	PWM_leftmotor_WritePeriod, .-PWM_leftmotor_WritePeriod
 223              		.section	.text.PWM_leftmotor_WriteCompare1,"ax",%progbits
 224              		.align	2
 225              		.global	PWM_leftmotor_WriteCompare1
 226              		.thumb
 227              		.thumb_func
 228              		.type	PWM_leftmotor_WriteCompare1, %function
 229              	PWM_leftmotor_WriteCompare1:
 230              	.LFB10:
 488:Generated_Source\PSoC5/PWM_leftmotor.c ****     #endif /* (PWM_leftmotor_UsingFixedFunction) */
 489:Generated_Source\PSoC5/PWM_leftmotor.c **** }
 490:Generated_Source\PSoC5/PWM_leftmotor.c **** 
 491:Generated_Source\PSoC5/PWM_leftmotor.c **** #if (PWM_leftmotor_UseOneCompareMode)
 492:Generated_Source\PSoC5/PWM_leftmotor.c **** 
 493:Generated_Source\PSoC5/PWM_leftmotor.c **** 
 494:Generated_Source\PSoC5/PWM_leftmotor.c ****     /*******************************************************************************
 495:Generated_Source\PSoC5/PWM_leftmotor.c ****     * Function Name: PWM_leftmotor_WriteCompare
 496:Generated_Source\PSoC5/PWM_leftmotor.c ****     ********************************************************************************
 497:Generated_Source\PSoC5/PWM_leftmotor.c ****     *
 498:Generated_Source\PSoC5/PWM_leftmotor.c ****     * Summary:
 499:Generated_Source\PSoC5/PWM_leftmotor.c ****     *  This funtion is used to change the compare1 value when the PWM is in Dither
 500:Generated_Source\PSoC5/PWM_leftmotor.c ****     *  mode. The compare output will reflect the new value on the next UDB clock.
 501:Generated_Source\PSoC5/PWM_leftmotor.c ****     *  The compare output will be driven high when the present counter value is
 502:Generated_Source\PSoC5/PWM_leftmotor.c ****     *  compared to the compare value based on the compare mode defined in
 503:Generated_Source\PSoC5/PWM_leftmotor.c ****     *  Dither Mode.
 504:Generated_Source\PSoC5/PWM_leftmotor.c ****     *
 505:Generated_Source\PSoC5/PWM_leftmotor.c ****     * Parameters:
 506:Generated_Source\PSoC5/PWM_leftmotor.c ****     *  compare:  New compare value.
 507:Generated_Source\PSoC5/PWM_leftmotor.c ****     *
 508:Generated_Source\PSoC5/PWM_leftmotor.c ****     * Return:
 509:Generated_Source\PSoC5/PWM_leftmotor.c ****     *  None
 510:Generated_Source\PSoC5/PWM_leftmotor.c ****     *
 511:Generated_Source\PSoC5/PWM_leftmotor.c ****     * Side Effects:
ARM GAS  C:\Users\xliu430\AppData\Local\Temp\ccj5POyR.s 			page 14


 512:Generated_Source\PSoC5/PWM_leftmotor.c ****     *  This function is only available if the PWM mode parameter is set to
 513:Generated_Source\PSoC5/PWM_leftmotor.c ****     *  Dither Mode, Center Aligned Mode or One Output Mode
 514:Generated_Source\PSoC5/PWM_leftmotor.c ****     *
 515:Generated_Source\PSoC5/PWM_leftmotor.c ****     *******************************************************************************/
 516:Generated_Source\PSoC5/PWM_leftmotor.c ****     void PWM_leftmotor_WriteCompare(uint8 compare) \
 517:Generated_Source\PSoC5/PWM_leftmotor.c ****                                        
 518:Generated_Source\PSoC5/PWM_leftmotor.c ****     {
 519:Generated_Source\PSoC5/PWM_leftmotor.c ****         #if(PWM_leftmotor_UsingFixedFunction)
 520:Generated_Source\PSoC5/PWM_leftmotor.c ****             CY_SET_REG16(PWM_leftmotor_COMPARE1_LSB_PTR, (uint16)compare);
 521:Generated_Source\PSoC5/PWM_leftmotor.c ****         #else
 522:Generated_Source\PSoC5/PWM_leftmotor.c ****             CY_SET_REG8(PWM_leftmotor_COMPARE1_LSB_PTR, compare);
 523:Generated_Source\PSoC5/PWM_leftmotor.c ****         #endif /* (PWM_leftmotor_UsingFixedFunction) */
 524:Generated_Source\PSoC5/PWM_leftmotor.c **** 
 525:Generated_Source\PSoC5/PWM_leftmotor.c ****         #if (PWM_leftmotor_PWMMode == PWM_leftmotor__B_PWM__DITHER)
 526:Generated_Source\PSoC5/PWM_leftmotor.c ****             #if(PWM_leftmotor_UsingFixedFunction)
 527:Generated_Source\PSoC5/PWM_leftmotor.c ****                 CY_SET_REG16(PWM_leftmotor_COMPARE2_LSB_PTR, (uint16)(compare + 1u));
 528:Generated_Source\PSoC5/PWM_leftmotor.c ****             #else
 529:Generated_Source\PSoC5/PWM_leftmotor.c ****                 CY_SET_REG8(PWM_leftmotor_COMPARE2_LSB_PTR, (compare + 1u));
 530:Generated_Source\PSoC5/PWM_leftmotor.c ****             #endif /* (PWM_leftmotor_UsingFixedFunction) */
 531:Generated_Source\PSoC5/PWM_leftmotor.c ****         #endif /* (PWM_leftmotor_PWMMode == PWM_leftmotor__B_PWM__DITHER) */
 532:Generated_Source\PSoC5/PWM_leftmotor.c ****     }
 533:Generated_Source\PSoC5/PWM_leftmotor.c **** 
 534:Generated_Source\PSoC5/PWM_leftmotor.c **** 
 535:Generated_Source\PSoC5/PWM_leftmotor.c **** #else
 536:Generated_Source\PSoC5/PWM_leftmotor.c **** 
 537:Generated_Source\PSoC5/PWM_leftmotor.c **** 
 538:Generated_Source\PSoC5/PWM_leftmotor.c ****     /*******************************************************************************
 539:Generated_Source\PSoC5/PWM_leftmotor.c ****     * Function Name: PWM_leftmotor_WriteCompare1
 540:Generated_Source\PSoC5/PWM_leftmotor.c ****     ********************************************************************************
 541:Generated_Source\PSoC5/PWM_leftmotor.c ****     *
 542:Generated_Source\PSoC5/PWM_leftmotor.c ****     * Summary:
 543:Generated_Source\PSoC5/PWM_leftmotor.c ****     *  This funtion is used to change the compare1 value.  The compare output will
 544:Generated_Source\PSoC5/PWM_leftmotor.c ****     *  reflect the new value on the next UDB clock.  The compare output will be
 545:Generated_Source\PSoC5/PWM_leftmotor.c ****     *  driven high when the present counter value is less than or less than or
 546:Generated_Source\PSoC5/PWM_leftmotor.c ****     *  equal to the compare register, depending on the mode.
 547:Generated_Source\PSoC5/PWM_leftmotor.c ****     *
 548:Generated_Source\PSoC5/PWM_leftmotor.c ****     * Parameters:
 549:Generated_Source\PSoC5/PWM_leftmotor.c ****     *  compare:  New compare value.
 550:Generated_Source\PSoC5/PWM_leftmotor.c ****     *
 551:Generated_Source\PSoC5/PWM_leftmotor.c ****     * Return:
 552:Generated_Source\PSoC5/PWM_leftmotor.c ****     *  None
 553:Generated_Source\PSoC5/PWM_leftmotor.c ****     *
 554:Generated_Source\PSoC5/PWM_leftmotor.c ****     *******************************************************************************/
 555:Generated_Source\PSoC5/PWM_leftmotor.c ****     void PWM_leftmotor_WriteCompare1(uint8 compare) \
 556:Generated_Source\PSoC5/PWM_leftmotor.c ****                                         
 557:Generated_Source\PSoC5/PWM_leftmotor.c ****     {
 231              		.loc 1 557 0
 232              		.cfi_startproc
 233              		@ args = 0, pretend = 0, frame = 0
 234              		@ frame_needed = 0, uses_anonymous_args = 0
 235              		@ link register save eliminated.
 236              	.LVL9:
 558:Generated_Source\PSoC5/PWM_leftmotor.c ****         #if(PWM_leftmotor_UsingFixedFunction)
 559:Generated_Source\PSoC5/PWM_leftmotor.c ****             CY_SET_REG16(PWM_leftmotor_COMPARE1_LSB_PTR, (uint16)compare);
 560:Generated_Source\PSoC5/PWM_leftmotor.c ****         #else
 561:Generated_Source\PSoC5/PWM_leftmotor.c ****             CY_SET_REG8(PWM_leftmotor_COMPARE1_LSB_PTR, compare);
 237              		.loc 1 561 0
ARM GAS  C:\Users\xliu430\AppData\Local\Temp\ccj5POyR.s 			page 15


 238 0000 014B     		ldr	r3, .L23
 239 0002 1870     		strb	r0, [r3]
 240 0004 7047     		bx	lr
 241              	.L24:
 242 0006 00BF     		.align	2
 243              	.L23:
 244 0008 2F640040 		.word	1073767471
 245              		.cfi_endproc
 246              	.LFE10:
 247              		.size	PWM_leftmotor_WriteCompare1, .-PWM_leftmotor_WriteCompare1
 248              		.section	.text.PWM_leftmotor_WriteCompare2,"ax",%progbits
 249              		.align	2
 250              		.global	PWM_leftmotor_WriteCompare2
 251              		.thumb
 252              		.thumb_func
 253              		.type	PWM_leftmotor_WriteCompare2, %function
 254              	PWM_leftmotor_WriteCompare2:
 255              	.LFB11:
 562:Generated_Source\PSoC5/PWM_leftmotor.c ****         #endif /* (PWM_leftmotor_UsingFixedFunction) */
 563:Generated_Source\PSoC5/PWM_leftmotor.c ****     }
 564:Generated_Source\PSoC5/PWM_leftmotor.c **** 
 565:Generated_Source\PSoC5/PWM_leftmotor.c **** 
 566:Generated_Source\PSoC5/PWM_leftmotor.c ****     /*******************************************************************************
 567:Generated_Source\PSoC5/PWM_leftmotor.c ****     * Function Name: PWM_leftmotor_WriteCompare2
 568:Generated_Source\PSoC5/PWM_leftmotor.c ****     ********************************************************************************
 569:Generated_Source\PSoC5/PWM_leftmotor.c ****     *
 570:Generated_Source\PSoC5/PWM_leftmotor.c ****     * Summary:
 571:Generated_Source\PSoC5/PWM_leftmotor.c ****     *  This funtion is used to change the compare value, for compare1 output.
 572:Generated_Source\PSoC5/PWM_leftmotor.c ****     *  The compare output will reflect the new value on the next UDB clock.
 573:Generated_Source\PSoC5/PWM_leftmotor.c ****     *  The compare output will be driven high when the present counter value is
 574:Generated_Source\PSoC5/PWM_leftmotor.c ****     *  less than or less than or equal to the compare register, depending on the
 575:Generated_Source\PSoC5/PWM_leftmotor.c ****     *  mode.
 576:Generated_Source\PSoC5/PWM_leftmotor.c ****     *
 577:Generated_Source\PSoC5/PWM_leftmotor.c ****     * Parameters:
 578:Generated_Source\PSoC5/PWM_leftmotor.c ****     *  compare:  New compare value.
 579:Generated_Source\PSoC5/PWM_leftmotor.c ****     *
 580:Generated_Source\PSoC5/PWM_leftmotor.c ****     * Return:
 581:Generated_Source\PSoC5/PWM_leftmotor.c ****     *  None
 582:Generated_Source\PSoC5/PWM_leftmotor.c ****     *
 583:Generated_Source\PSoC5/PWM_leftmotor.c ****     *******************************************************************************/
 584:Generated_Source\PSoC5/PWM_leftmotor.c ****     void PWM_leftmotor_WriteCompare2(uint8 compare) \
 585:Generated_Source\PSoC5/PWM_leftmotor.c ****                                         
 586:Generated_Source\PSoC5/PWM_leftmotor.c ****     {
 256              		.loc 1 586 0
 257              		.cfi_startproc
 258              		@ args = 0, pretend = 0, frame = 0
 259              		@ frame_needed = 0, uses_anonymous_args = 0
 260              		@ link register save eliminated.
 261              	.LVL10:
 587:Generated_Source\PSoC5/PWM_leftmotor.c ****         #if(PWM_leftmotor_UsingFixedFunction)
 588:Generated_Source\PSoC5/PWM_leftmotor.c ****             CY_SET_REG16(PWM_leftmotor_COMPARE2_LSB_PTR, compare);
 589:Generated_Source\PSoC5/PWM_leftmotor.c ****         #else
 590:Generated_Source\PSoC5/PWM_leftmotor.c ****             CY_SET_REG8(PWM_leftmotor_COMPARE2_LSB_PTR, compare);
 262              		.loc 1 590 0
 263 0000 014B     		ldr	r3, .L26
 264 0002 1870     		strb	r0, [r3]
 265 0004 7047     		bx	lr
ARM GAS  C:\Users\xliu430\AppData\Local\Temp\ccj5POyR.s 			page 16


 266              	.L27:
 267 0006 00BF     		.align	2
 268              	.L26:
 269 0008 3F640040 		.word	1073767487
 270              		.cfi_endproc
 271              	.LFE11:
 272              		.size	PWM_leftmotor_WriteCompare2, .-PWM_leftmotor_WriteCompare2
 273              		.section	.text.PWM_leftmotor_SetInterruptMode,"ax",%progbits
 274              		.align	2
 275              		.global	PWM_leftmotor_SetInterruptMode
 276              		.thumb
 277              		.thumb_func
 278              		.type	PWM_leftmotor_SetInterruptMode, %function
 279              	PWM_leftmotor_SetInterruptMode:
 280              	.LFB12:
 591:Generated_Source\PSoC5/PWM_leftmotor.c ****         #endif /* (PWM_leftmotor_UsingFixedFunction) */
 592:Generated_Source\PSoC5/PWM_leftmotor.c ****     }
 593:Generated_Source\PSoC5/PWM_leftmotor.c **** #endif /* UseOneCompareMode */
 594:Generated_Source\PSoC5/PWM_leftmotor.c **** 
 595:Generated_Source\PSoC5/PWM_leftmotor.c **** #if (PWM_leftmotor_DeadBandUsed)
 596:Generated_Source\PSoC5/PWM_leftmotor.c **** 
 597:Generated_Source\PSoC5/PWM_leftmotor.c **** 
 598:Generated_Source\PSoC5/PWM_leftmotor.c ****     /*******************************************************************************
 599:Generated_Source\PSoC5/PWM_leftmotor.c ****     * Function Name: PWM_leftmotor_WriteDeadTime
 600:Generated_Source\PSoC5/PWM_leftmotor.c ****     ********************************************************************************
 601:Generated_Source\PSoC5/PWM_leftmotor.c ****     *
 602:Generated_Source\PSoC5/PWM_leftmotor.c ****     * Summary:
 603:Generated_Source\PSoC5/PWM_leftmotor.c ****     *  This function writes the dead-band counts to the corresponding register
 604:Generated_Source\PSoC5/PWM_leftmotor.c ****     *
 605:Generated_Source\PSoC5/PWM_leftmotor.c ****     * Parameters:
 606:Generated_Source\PSoC5/PWM_leftmotor.c ****     *  deadtime:  Number of counts for dead time
 607:Generated_Source\PSoC5/PWM_leftmotor.c ****     *
 608:Generated_Source\PSoC5/PWM_leftmotor.c ****     * Return:
 609:Generated_Source\PSoC5/PWM_leftmotor.c ****     *  None
 610:Generated_Source\PSoC5/PWM_leftmotor.c ****     *
 611:Generated_Source\PSoC5/PWM_leftmotor.c ****     *******************************************************************************/
 612:Generated_Source\PSoC5/PWM_leftmotor.c ****     void PWM_leftmotor_WriteDeadTime(uint8 deadtime) 
 613:Generated_Source\PSoC5/PWM_leftmotor.c ****     {
 614:Generated_Source\PSoC5/PWM_leftmotor.c ****         /* If using the Dead Band 1-255 mode then just write the register */
 615:Generated_Source\PSoC5/PWM_leftmotor.c ****         #if(!PWM_leftmotor_DeadBand2_4)
 616:Generated_Source\PSoC5/PWM_leftmotor.c ****             CY_SET_REG8(PWM_leftmotor_DEADBAND_COUNT_PTR, deadtime);
 617:Generated_Source\PSoC5/PWM_leftmotor.c ****         #else
 618:Generated_Source\PSoC5/PWM_leftmotor.c ****             /* Otherwise the data has to be masked and offset */
 619:Generated_Source\PSoC5/PWM_leftmotor.c ****             /* Clear existing data */
 620:Generated_Source\PSoC5/PWM_leftmotor.c ****             PWM_leftmotor_DEADBAND_COUNT &= ((uint8)(~PWM_leftmotor_DEADBAND_COUNT_MASK));
 621:Generated_Source\PSoC5/PWM_leftmotor.c **** 
 622:Generated_Source\PSoC5/PWM_leftmotor.c ****             /* Set new dead time */
 623:Generated_Source\PSoC5/PWM_leftmotor.c ****             #if(PWM_leftmotor_DEADBAND_COUNT_SHIFT)
 624:Generated_Source\PSoC5/PWM_leftmotor.c ****                 PWM_leftmotor_DEADBAND_COUNT |= ((uint8)((uint8)deadtime << PWM_leftmotor_DEADBAND_
 625:Generated_Source\PSoC5/PWM_leftmotor.c ****                                                     PWM_leftmotor_DEADBAND_COUNT_MASK;
 626:Generated_Source\PSoC5/PWM_leftmotor.c ****             #else
 627:Generated_Source\PSoC5/PWM_leftmotor.c ****                 PWM_leftmotor_DEADBAND_COUNT |= deadtime & PWM_leftmotor_DEADBAND_COUNT_MASK;
 628:Generated_Source\PSoC5/PWM_leftmotor.c ****             #endif /* (PWM_leftmotor_DEADBAND_COUNT_SHIFT) */
 629:Generated_Source\PSoC5/PWM_leftmotor.c **** 
 630:Generated_Source\PSoC5/PWM_leftmotor.c ****         #endif /* (!PWM_leftmotor_DeadBand2_4) */
 631:Generated_Source\PSoC5/PWM_leftmotor.c ****     }
 632:Generated_Source\PSoC5/PWM_leftmotor.c **** 
ARM GAS  C:\Users\xliu430\AppData\Local\Temp\ccj5POyR.s 			page 17


 633:Generated_Source\PSoC5/PWM_leftmotor.c **** 
 634:Generated_Source\PSoC5/PWM_leftmotor.c ****     /*******************************************************************************
 635:Generated_Source\PSoC5/PWM_leftmotor.c ****     * Function Name: PWM_leftmotor_ReadDeadTime
 636:Generated_Source\PSoC5/PWM_leftmotor.c ****     ********************************************************************************
 637:Generated_Source\PSoC5/PWM_leftmotor.c ****     *
 638:Generated_Source\PSoC5/PWM_leftmotor.c ****     * Summary:
 639:Generated_Source\PSoC5/PWM_leftmotor.c ****     *  This function reads the dead-band counts from the corresponding register
 640:Generated_Source\PSoC5/PWM_leftmotor.c ****     *
 641:Generated_Source\PSoC5/PWM_leftmotor.c ****     * Parameters:
 642:Generated_Source\PSoC5/PWM_leftmotor.c ****     *  None
 643:Generated_Source\PSoC5/PWM_leftmotor.c ****     *
 644:Generated_Source\PSoC5/PWM_leftmotor.c ****     * Return:
 645:Generated_Source\PSoC5/PWM_leftmotor.c ****     *  Dead Band Counts
 646:Generated_Source\PSoC5/PWM_leftmotor.c ****     *
 647:Generated_Source\PSoC5/PWM_leftmotor.c ****     *******************************************************************************/
 648:Generated_Source\PSoC5/PWM_leftmotor.c ****     uint8 PWM_leftmotor_ReadDeadTime(void) 
 649:Generated_Source\PSoC5/PWM_leftmotor.c ****     {
 650:Generated_Source\PSoC5/PWM_leftmotor.c ****         /* If using the Dead Band 1-255 mode then just read the register */
 651:Generated_Source\PSoC5/PWM_leftmotor.c ****         #if(!PWM_leftmotor_DeadBand2_4)
 652:Generated_Source\PSoC5/PWM_leftmotor.c ****             return (CY_GET_REG8(PWM_leftmotor_DEADBAND_COUNT_PTR));
 653:Generated_Source\PSoC5/PWM_leftmotor.c ****         #else
 654:Generated_Source\PSoC5/PWM_leftmotor.c **** 
 655:Generated_Source\PSoC5/PWM_leftmotor.c ****             /* Otherwise the data has to be masked and offset */
 656:Generated_Source\PSoC5/PWM_leftmotor.c ****             #if(PWM_leftmotor_DEADBAND_COUNT_SHIFT)
 657:Generated_Source\PSoC5/PWM_leftmotor.c ****                 return ((uint8)(((uint8)(PWM_leftmotor_DEADBAND_COUNT & PWM_leftmotor_DEADBAND_COUN
 658:Generated_Source\PSoC5/PWM_leftmotor.c ****                                                                            PWM_leftmotor_DEADBAND_C
 659:Generated_Source\PSoC5/PWM_leftmotor.c ****             #else
 660:Generated_Source\PSoC5/PWM_leftmotor.c ****                 return (PWM_leftmotor_DEADBAND_COUNT & PWM_leftmotor_DEADBAND_COUNT_MASK);
 661:Generated_Source\PSoC5/PWM_leftmotor.c ****             #endif /* (PWM_leftmotor_DEADBAND_COUNT_SHIFT) */
 662:Generated_Source\PSoC5/PWM_leftmotor.c ****         #endif /* (!PWM_leftmotor_DeadBand2_4) */
 663:Generated_Source\PSoC5/PWM_leftmotor.c ****     }
 664:Generated_Source\PSoC5/PWM_leftmotor.c **** #endif /* DeadBandUsed */
 665:Generated_Source\PSoC5/PWM_leftmotor.c **** 
 666:Generated_Source\PSoC5/PWM_leftmotor.c **** #if (PWM_leftmotor_UseStatus || PWM_leftmotor_UsingFixedFunction)
 667:Generated_Source\PSoC5/PWM_leftmotor.c **** 
 668:Generated_Source\PSoC5/PWM_leftmotor.c **** 
 669:Generated_Source\PSoC5/PWM_leftmotor.c ****     /*******************************************************************************
 670:Generated_Source\PSoC5/PWM_leftmotor.c ****     * Function Name: PWM_leftmotor_SetInterruptMode
 671:Generated_Source\PSoC5/PWM_leftmotor.c ****     ********************************************************************************
 672:Generated_Source\PSoC5/PWM_leftmotor.c ****     *
 673:Generated_Source\PSoC5/PWM_leftmotor.c ****     * Summary:
 674:Generated_Source\PSoC5/PWM_leftmotor.c ****     *  This function configures the interrupts mask control of theinterrupt
 675:Generated_Source\PSoC5/PWM_leftmotor.c ****     *  source status register.
 676:Generated_Source\PSoC5/PWM_leftmotor.c ****     *
 677:Generated_Source\PSoC5/PWM_leftmotor.c ****     * Parameters:
 678:Generated_Source\PSoC5/PWM_leftmotor.c ****     *  uint8 interruptMode: Bit field containing the interrupt sources enabled
 679:Generated_Source\PSoC5/PWM_leftmotor.c ****     *
 680:Generated_Source\PSoC5/PWM_leftmotor.c ****     * Return:
 681:Generated_Source\PSoC5/PWM_leftmotor.c ****     *  None
 682:Generated_Source\PSoC5/PWM_leftmotor.c ****     *
 683:Generated_Source\PSoC5/PWM_leftmotor.c ****     *******************************************************************************/
 684:Generated_Source\PSoC5/PWM_leftmotor.c ****     void PWM_leftmotor_SetInterruptMode(uint8 interruptMode) 
 685:Generated_Source\PSoC5/PWM_leftmotor.c ****     {
 281              		.loc 1 685 0
 282              		.cfi_startproc
 283              		@ args = 0, pretend = 0, frame = 0
 284              		@ frame_needed = 0, uses_anonymous_args = 0
ARM GAS  C:\Users\xliu430\AppData\Local\Temp\ccj5POyR.s 			page 18


 285              		@ link register save eliminated.
 286              	.LVL11:
 686:Generated_Source\PSoC5/PWM_leftmotor.c ****         CY_SET_REG8(PWM_leftmotor_STATUS_MASK_PTR, interruptMode);
 287              		.loc 1 686 0
 288 0000 014B     		ldr	r3, .L29
 289 0002 1870     		strb	r0, [r3]
 290 0004 7047     		bx	lr
 291              	.L30:
 292 0006 00BF     		.align	2
 293              	.L29:
 294 0008 8F640040 		.word	1073767567
 295              		.cfi_endproc
 296              	.LFE12:
 297              		.size	PWM_leftmotor_SetInterruptMode, .-PWM_leftmotor_SetInterruptMode
 298              		.section	.text.PWM_leftmotor_ReadStatusRegister,"ax",%progbits
 299              		.align	2
 300              		.global	PWM_leftmotor_ReadStatusRegister
 301              		.thumb
 302              		.thumb_func
 303              		.type	PWM_leftmotor_ReadStatusRegister, %function
 304              	PWM_leftmotor_ReadStatusRegister:
 305              	.LFB13:
 687:Generated_Source\PSoC5/PWM_leftmotor.c ****     }
 688:Generated_Source\PSoC5/PWM_leftmotor.c **** 
 689:Generated_Source\PSoC5/PWM_leftmotor.c **** 
 690:Generated_Source\PSoC5/PWM_leftmotor.c ****     /*******************************************************************************
 691:Generated_Source\PSoC5/PWM_leftmotor.c ****     * Function Name: PWM_leftmotor_ReadStatusRegister
 692:Generated_Source\PSoC5/PWM_leftmotor.c ****     ********************************************************************************
 693:Generated_Source\PSoC5/PWM_leftmotor.c ****     *
 694:Generated_Source\PSoC5/PWM_leftmotor.c ****     * Summary:
 695:Generated_Source\PSoC5/PWM_leftmotor.c ****     *  This function returns the current state of the status register.
 696:Generated_Source\PSoC5/PWM_leftmotor.c ****     *
 697:Generated_Source\PSoC5/PWM_leftmotor.c ****     * Parameters:
 698:Generated_Source\PSoC5/PWM_leftmotor.c ****     *  None
 699:Generated_Source\PSoC5/PWM_leftmotor.c ****     *
 700:Generated_Source\PSoC5/PWM_leftmotor.c ****     * Return:
 701:Generated_Source\PSoC5/PWM_leftmotor.c ****     *  uint8 : Current status register value. The status register bits are:
 702:Generated_Source\PSoC5/PWM_leftmotor.c ****     *  [7:6] : Unused(0)
 703:Generated_Source\PSoC5/PWM_leftmotor.c ****     *  [5]   : Kill event output
 704:Generated_Source\PSoC5/PWM_leftmotor.c ****     *  [4]   : FIFO not empty
 705:Generated_Source\PSoC5/PWM_leftmotor.c ****     *  [3]   : FIFO full
 706:Generated_Source\PSoC5/PWM_leftmotor.c ****     *  [2]   : Terminal count
 707:Generated_Source\PSoC5/PWM_leftmotor.c ****     *  [1]   : Compare output 2
 708:Generated_Source\PSoC5/PWM_leftmotor.c ****     *  [0]   : Compare output 1
 709:Generated_Source\PSoC5/PWM_leftmotor.c ****     *
 710:Generated_Source\PSoC5/PWM_leftmotor.c ****     *******************************************************************************/
 711:Generated_Source\PSoC5/PWM_leftmotor.c ****     uint8 PWM_leftmotor_ReadStatusRegister(void) 
 712:Generated_Source\PSoC5/PWM_leftmotor.c ****     {
 306              		.loc 1 712 0
 307              		.cfi_startproc
 308              		@ args = 0, pretend = 0, frame = 0
 309              		@ frame_needed = 0, uses_anonymous_args = 0
 310              		@ link register save eliminated.
 713:Generated_Source\PSoC5/PWM_leftmotor.c ****         return (CY_GET_REG8(PWM_leftmotor_STATUS_PTR));
 311              		.loc 1 713 0
 312 0000 014B     		ldr	r3, .L32
 313 0002 1878     		ldrb	r0, [r3]	@ zero_extendqisi2
ARM GAS  C:\Users\xliu430\AppData\Local\Temp\ccj5POyR.s 			page 19


 714:Generated_Source\PSoC5/PWM_leftmotor.c ****     }
 314              		.loc 1 714 0
 315 0004 7047     		bx	lr
 316              	.L33:
 317 0006 00BF     		.align	2
 318              	.L32:
 319 0008 6F640040 		.word	1073767535
 320              		.cfi_endproc
 321              	.LFE13:
 322              		.size	PWM_leftmotor_ReadStatusRegister, .-PWM_leftmotor_ReadStatusRegister
 323              		.section	.text.PWM_leftmotor_ReadControlRegister,"ax",%progbits
 324              		.align	2
 325              		.global	PWM_leftmotor_ReadControlRegister
 326              		.thumb
 327              		.thumb_func
 328              		.type	PWM_leftmotor_ReadControlRegister, %function
 329              	PWM_leftmotor_ReadControlRegister:
 330              	.LFB14:
 715:Generated_Source\PSoC5/PWM_leftmotor.c **** 
 716:Generated_Source\PSoC5/PWM_leftmotor.c **** #endif /* (PWM_leftmotor_UseStatus || PWM_leftmotor_UsingFixedFunction) */
 717:Generated_Source\PSoC5/PWM_leftmotor.c **** 
 718:Generated_Source\PSoC5/PWM_leftmotor.c **** 
 719:Generated_Source\PSoC5/PWM_leftmotor.c **** #if (PWM_leftmotor_UseControl)
 720:Generated_Source\PSoC5/PWM_leftmotor.c **** 
 721:Generated_Source\PSoC5/PWM_leftmotor.c **** 
 722:Generated_Source\PSoC5/PWM_leftmotor.c ****     /*******************************************************************************
 723:Generated_Source\PSoC5/PWM_leftmotor.c ****     * Function Name: PWM_leftmotor_ReadControlRegister
 724:Generated_Source\PSoC5/PWM_leftmotor.c ****     ********************************************************************************
 725:Generated_Source\PSoC5/PWM_leftmotor.c ****     *
 726:Generated_Source\PSoC5/PWM_leftmotor.c ****     * Summary:
 727:Generated_Source\PSoC5/PWM_leftmotor.c ****     *  Returns the current state of the control register. This API is available
 728:Generated_Source\PSoC5/PWM_leftmotor.c ****     *  only if the control register is not removed.
 729:Generated_Source\PSoC5/PWM_leftmotor.c ****     *
 730:Generated_Source\PSoC5/PWM_leftmotor.c ****     * Parameters:
 731:Generated_Source\PSoC5/PWM_leftmotor.c ****     *  None
 732:Generated_Source\PSoC5/PWM_leftmotor.c ****     *
 733:Generated_Source\PSoC5/PWM_leftmotor.c ****     * Return:
 734:Generated_Source\PSoC5/PWM_leftmotor.c ****     *  uint8 : Current control register value
 735:Generated_Source\PSoC5/PWM_leftmotor.c ****     *
 736:Generated_Source\PSoC5/PWM_leftmotor.c ****     *******************************************************************************/
 737:Generated_Source\PSoC5/PWM_leftmotor.c ****     uint8 PWM_leftmotor_ReadControlRegister(void) 
 738:Generated_Source\PSoC5/PWM_leftmotor.c ****     {
 331              		.loc 1 738 0
 332              		.cfi_startproc
 333              		@ args = 0, pretend = 0, frame = 0
 334              		@ frame_needed = 0, uses_anonymous_args = 0
 335              		@ link register save eliminated.
 739:Generated_Source\PSoC5/PWM_leftmotor.c ****         uint8 result;
 740:Generated_Source\PSoC5/PWM_leftmotor.c **** 
 741:Generated_Source\PSoC5/PWM_leftmotor.c ****         result = CY_GET_REG8(PWM_leftmotor_CONTROL_PTR);
 336              		.loc 1 741 0
 337 0000 014B     		ldr	r3, .L35
 338 0002 1878     		ldrb	r0, [r3]	@ zero_extendqisi2
 339              	.LVL12:
 742:Generated_Source\PSoC5/PWM_leftmotor.c ****         return (result);
 743:Generated_Source\PSoC5/PWM_leftmotor.c ****     }
 340              		.loc 1 743 0
ARM GAS  C:\Users\xliu430\AppData\Local\Temp\ccj5POyR.s 			page 20


 341 0004 7047     		bx	lr
 342              	.L36:
 343 0006 00BF     		.align	2
 344              	.L35:
 345 0008 7F640040 		.word	1073767551
 346              		.cfi_endproc
 347              	.LFE14:
 348              		.size	PWM_leftmotor_ReadControlRegister, .-PWM_leftmotor_ReadControlRegister
 349              		.section	.text.PWM_leftmotor_WriteControlRegister,"ax",%progbits
 350              		.align	2
 351              		.global	PWM_leftmotor_WriteControlRegister
 352              		.thumb
 353              		.thumb_func
 354              		.type	PWM_leftmotor_WriteControlRegister, %function
 355              	PWM_leftmotor_WriteControlRegister:
 356              	.LFB15:
 744:Generated_Source\PSoC5/PWM_leftmotor.c **** 
 745:Generated_Source\PSoC5/PWM_leftmotor.c **** 
 746:Generated_Source\PSoC5/PWM_leftmotor.c ****     /*******************************************************************************
 747:Generated_Source\PSoC5/PWM_leftmotor.c ****     * Function Name: PWM_leftmotor_WriteControlRegister
 748:Generated_Source\PSoC5/PWM_leftmotor.c ****     ********************************************************************************
 749:Generated_Source\PSoC5/PWM_leftmotor.c ****     *
 750:Generated_Source\PSoC5/PWM_leftmotor.c ****     * Summary:
 751:Generated_Source\PSoC5/PWM_leftmotor.c ****     *  Sets the bit field of the control register. This API is available only if
 752:Generated_Source\PSoC5/PWM_leftmotor.c ****     *  the control register is not removed.
 753:Generated_Source\PSoC5/PWM_leftmotor.c ****     *
 754:Generated_Source\PSoC5/PWM_leftmotor.c ****     * Parameters:
 755:Generated_Source\PSoC5/PWM_leftmotor.c ****     *  uint8 control: Control register bit field, The status register bits are:
 756:Generated_Source\PSoC5/PWM_leftmotor.c ****     *  [7]   : PWM Enable
 757:Generated_Source\PSoC5/PWM_leftmotor.c ****     *  [6]   : Reset
 758:Generated_Source\PSoC5/PWM_leftmotor.c ****     *  [5:3] : Compare Mode2
 759:Generated_Source\PSoC5/PWM_leftmotor.c ****     *  [2:0] : Compare Mode2
 760:Generated_Source\PSoC5/PWM_leftmotor.c ****     *
 761:Generated_Source\PSoC5/PWM_leftmotor.c ****     * Return:
 762:Generated_Source\PSoC5/PWM_leftmotor.c ****     *  None
 763:Generated_Source\PSoC5/PWM_leftmotor.c ****     *
 764:Generated_Source\PSoC5/PWM_leftmotor.c ****     *******************************************************************************/
 765:Generated_Source\PSoC5/PWM_leftmotor.c ****     void PWM_leftmotor_WriteControlRegister(uint8 control) 
 766:Generated_Source\PSoC5/PWM_leftmotor.c ****     {
 357              		.loc 1 766 0
 358              		.cfi_startproc
 359              		@ args = 0, pretend = 0, frame = 0
 360              		@ frame_needed = 0, uses_anonymous_args = 0
 361              		@ link register save eliminated.
 362              	.LVL13:
 767:Generated_Source\PSoC5/PWM_leftmotor.c ****         CY_SET_REG8(PWM_leftmotor_CONTROL_PTR, control);
 363              		.loc 1 767 0
 364 0000 014B     		ldr	r3, .L38
 365 0002 1870     		strb	r0, [r3]
 366 0004 7047     		bx	lr
 367              	.L39:
 368 0006 00BF     		.align	2
 369              	.L38:
 370 0008 7F640040 		.word	1073767551
 371              		.cfi_endproc
 372              	.LFE15:
 373              		.size	PWM_leftmotor_WriteControlRegister, .-PWM_leftmotor_WriteControlRegister
ARM GAS  C:\Users\xliu430\AppData\Local\Temp\ccj5POyR.s 			page 21


 374              		.section	.text.PWM_leftmotor_ReadCapture,"ax",%progbits
 375              		.align	2
 376              		.global	PWM_leftmotor_ReadCapture
 377              		.thumb
 378              		.thumb_func
 379              		.type	PWM_leftmotor_ReadCapture, %function
 380              	PWM_leftmotor_ReadCapture:
 381              	.LFB16:
 768:Generated_Source\PSoC5/PWM_leftmotor.c ****     }
 769:Generated_Source\PSoC5/PWM_leftmotor.c **** 
 770:Generated_Source\PSoC5/PWM_leftmotor.c **** #endif /* (PWM_leftmotor_UseControl) */
 771:Generated_Source\PSoC5/PWM_leftmotor.c **** 
 772:Generated_Source\PSoC5/PWM_leftmotor.c **** 
 773:Generated_Source\PSoC5/PWM_leftmotor.c **** #if (!PWM_leftmotor_UsingFixedFunction)
 774:Generated_Source\PSoC5/PWM_leftmotor.c **** 
 775:Generated_Source\PSoC5/PWM_leftmotor.c **** 
 776:Generated_Source\PSoC5/PWM_leftmotor.c ****     /*******************************************************************************
 777:Generated_Source\PSoC5/PWM_leftmotor.c ****     * Function Name: PWM_leftmotor_ReadCapture
 778:Generated_Source\PSoC5/PWM_leftmotor.c ****     ********************************************************************************
 779:Generated_Source\PSoC5/PWM_leftmotor.c ****     *
 780:Generated_Source\PSoC5/PWM_leftmotor.c ****     * Summary:
 781:Generated_Source\PSoC5/PWM_leftmotor.c ****     *  Reads the capture value from the capture FIFO.
 782:Generated_Source\PSoC5/PWM_leftmotor.c ****     *
 783:Generated_Source\PSoC5/PWM_leftmotor.c ****     * Parameters:
 784:Generated_Source\PSoC5/PWM_leftmotor.c ****     *  None
 785:Generated_Source\PSoC5/PWM_leftmotor.c ****     *
 786:Generated_Source\PSoC5/PWM_leftmotor.c ****     * Return:
 787:Generated_Source\PSoC5/PWM_leftmotor.c ****     *  uint8/uint16: The current capture value
 788:Generated_Source\PSoC5/PWM_leftmotor.c ****     *
 789:Generated_Source\PSoC5/PWM_leftmotor.c ****     *******************************************************************************/
 790:Generated_Source\PSoC5/PWM_leftmotor.c ****     uint8 PWM_leftmotor_ReadCapture(void) 
 791:Generated_Source\PSoC5/PWM_leftmotor.c ****     {
 382              		.loc 1 791 0
 383              		.cfi_startproc
 384              		@ args = 0, pretend = 0, frame = 0
 385              		@ frame_needed = 0, uses_anonymous_args = 0
 386              		@ link register save eliminated.
 792:Generated_Source\PSoC5/PWM_leftmotor.c ****         return (CY_GET_REG8(PWM_leftmotor_CAPTURE_LSB_PTR));
 387              		.loc 1 792 0
 388 0000 014B     		ldr	r3, .L41
 389 0002 1878     		ldrb	r0, [r3]	@ zero_extendqisi2
 793:Generated_Source\PSoC5/PWM_leftmotor.c ****     }
 390              		.loc 1 793 0
 391 0004 7047     		bx	lr
 392              	.L42:
 393 0006 00BF     		.align	2
 394              	.L41:
 395 0008 5F640040 		.word	1073767519
 396              		.cfi_endproc
 397              	.LFE16:
 398              		.size	PWM_leftmotor_ReadCapture, .-PWM_leftmotor_ReadCapture
 399              		.section	.text.PWM_leftmotor_ClearFIFO,"ax",%progbits
 400              		.align	2
 401              		.global	PWM_leftmotor_ClearFIFO
 402              		.thumb
 403              		.thumb_func
 404              		.type	PWM_leftmotor_ClearFIFO, %function
ARM GAS  C:\Users\xliu430\AppData\Local\Temp\ccj5POyR.s 			page 22


 405              	PWM_leftmotor_ClearFIFO:
 406              	.LFB8:
 454:Generated_Source\PSoC5/PWM_leftmotor.c ****             while(0u != (PWM_leftmotor_ReadStatusRegister() & PWM_leftmotor_STATUS_FIFONEMPTY))
 407              		.loc 1 454 0
 408              		.cfi_startproc
 409              		@ args = 0, pretend = 0, frame = 0
 410              		@ frame_needed = 0, uses_anonymous_args = 0
 411 0000 08B5     		push	{r3, lr}
 412              		.cfi_def_cfa_offset 8
 413              		.cfi_offset 3, -8
 414              		.cfi_offset 14, -4
 455:Generated_Source\PSoC5/PWM_leftmotor.c ****             {
 415              		.loc 1 455 0
 416 0002 01E0     		b	.L44
 417              	.L45:
 457:Generated_Source\PSoC5/PWM_leftmotor.c ****             }
 418              		.loc 1 457 0
 419 0004 FFF7FEFF 		bl	PWM_leftmotor_ReadCapture
 420              	.LVL14:
 421              	.L44:
 455:Generated_Source\PSoC5/PWM_leftmotor.c ****             {
 422              		.loc 1 455 0
 423 0008 FFF7FEFF 		bl	PWM_leftmotor_ReadStatusRegister
 424              	.LVL15:
 425 000c 10F0100F 		tst	r0, #16
 426 0010 F8D1     		bne	.L45
 459:Generated_Source\PSoC5/PWM_leftmotor.c **** 
 427              		.loc 1 459 0
 428 0012 08BD     		pop	{r3, pc}
 429              		.cfi_endproc
 430              	.LFE8:
 431              		.size	PWM_leftmotor_ClearFIFO, .-PWM_leftmotor_ClearFIFO
 432              		.section	.text.PWM_leftmotor_Init,"ax",%progbits
 433              		.align	2
 434              		.global	PWM_leftmotor_Init
 435              		.thumb
 436              		.thumb_func
 437              		.type	PWM_leftmotor_Init, %function
 438              	PWM_leftmotor_Init:
 439              	.LFB1:
  85:Generated_Source\PSoC5/PWM_leftmotor.c ****     #if (PWM_leftmotor_UsingFixedFunction || PWM_leftmotor_UseControl)
 440              		.loc 1 85 0
 441              		.cfi_startproc
 442              		@ args = 0, pretend = 0, frame = 0
 443              		@ frame_needed = 0, uses_anonymous_args = 0
 444 0000 10B5     		push	{r4, lr}
 445              		.cfi_def_cfa_offset 8
 446              		.cfi_offset 4, -8
 447              		.cfi_offset 14, -4
 117:Generated_Source\PSoC5/PWM_leftmotor.c ****                 ((uint8)(~PWM_leftmotor_CTRL_CMPMODE1_MASK));
 448              		.loc 1 117 0
 449 0002 134A     		ldr	r2, .L49
 450 0004 1378     		ldrb	r3, [r2]	@ zero_extendqisi2
 451 0006 03F0C003 		and	r3, r3, #192
 452              	.LVL16:
 119:Generated_Source\PSoC5/PWM_leftmotor.c ****                                    PWM_leftmotor_DEFAULT_COMPARE1_MODE;
 453              		.loc 1 119 0
ARM GAS  C:\Users\xliu430\AppData\Local\Temp\ccj5POyR.s 			page 23


 454 000a 43F02D03 		orr	r3, r3, #45
 455              	.LVL17:
 456 000e 1370     		strb	r3, [r2]
 126:Generated_Source\PSoC5/PWM_leftmotor.c ****         #else /* (PWM_leftmotor_Resolution == 16)*/
 457              		.loc 1 126 0
 458 0010 104C     		ldr	r4, .L49+4
 459 0012 2378     		ldrb	r3, [r4]	@ zero_extendqisi2
 460 0014 43F00103 		orr	r3, r3, #1
 461 0018 2370     		strb	r3, [r4]
 133:Generated_Source\PSoC5/PWM_leftmotor.c ****     #endif /* (!PWM_leftmotor_UsingFixedFunction) */
 462              		.loc 1 133 0
 463 001a FF20     		movs	r0, #255
 464 001c FFF7FEFF 		bl	PWM_leftmotor_WriteCounter
 465              	.LVL18:
 136:Generated_Source\PSoC5/PWM_leftmotor.c **** 
 466              		.loc 1 136 0
 467 0020 FF20     		movs	r0, #255
 468 0022 FFF7FEFF 		bl	PWM_leftmotor_WritePeriod
 469              	.LVL19:
 141:Generated_Source\PSoC5/PWM_leftmotor.c ****             PWM_leftmotor_WriteCompare2(PWM_leftmotor_INIT_COMPARE_VALUE2);
 470              		.loc 1 141 0
 471 0026 7F20     		movs	r0, #127
 472 0028 FFF7FEFF 		bl	PWM_leftmotor_WriteCompare1
 473              	.LVL20:
 142:Generated_Source\PSoC5/PWM_leftmotor.c ****         #endif /* (PWM_leftmotor_UseOneCompareMode) */
 474              		.loc 1 142 0
 475 002c 7F20     		movs	r0, #127
 476 002e FFF7FEFF 		bl	PWM_leftmotor_WriteCompare2
 477              	.LVL21:
 154:Generated_Source\PSoC5/PWM_leftmotor.c ****     #endif /* (PWM_leftmotor_UseStatus || PWM_leftmotor_UsingFixedFunction) */
 478              		.loc 1 154 0
 479 0032 0020     		movs	r0, #0
 480 0034 FFF7FEFF 		bl	PWM_leftmotor_SetInterruptMode
 481              	.LVL22:
 167:Generated_Source\PSoC5/PWM_leftmotor.c ****             /* Use the interrupt output of the status register for IRQ output */
 482              		.loc 1 167 0
 483 0038 FFF7FEFF 		bl	CyEnterCriticalSection
 484              	.LVL23:
 169:Generated_Source\PSoC5/PWM_leftmotor.c **** 
 485              		.loc 1 169 0
 486 003c 2378     		ldrb	r3, [r4]	@ zero_extendqisi2
 487 003e 43F01003 		orr	r3, r3, #16
 488 0042 2370     		strb	r3, [r4]
 172:Generated_Source\PSoC5/PWM_leftmotor.c **** 
 489              		.loc 1 172 0
 490 0044 FFF7FEFF 		bl	CyExitCriticalSection
 491              	.LVL24:
 176:Generated_Source\PSoC5/PWM_leftmotor.c ****         #endif /* (PWM_leftmotor_UseStatus) */
 492              		.loc 1 176 0
 493 0048 FFF7FEFF 		bl	PWM_leftmotor_ClearFIFO
 494              	.LVL25:
 495 004c 10BD     		pop	{r4, pc}
 496              	.L50:
 497 004e 00BF     		.align	2
 498              	.L49:
 499 0050 7F640040 		.word	1073767551
 500 0054 9F640040 		.word	1073767583
ARM GAS  C:\Users\xliu430\AppData\Local\Temp\ccj5POyR.s 			page 24


 501              		.cfi_endproc
 502              	.LFE1:
 503              		.size	PWM_leftmotor_Init, .-PWM_leftmotor_Init
 504              		.section	.text.PWM_leftmotor_Start,"ax",%progbits
 505              		.align	2
 506              		.global	PWM_leftmotor_Start
 507              		.thumb
 508              		.thumb_func
 509              		.type	PWM_leftmotor_Start, %function
 510              	PWM_leftmotor_Start:
 511              	.LFB0:
  56:Generated_Source\PSoC5/PWM_leftmotor.c ****     /* If not Initialized then initialize all required hardware and software */
 512              		.loc 1 56 0
 513              		.cfi_startproc
 514              		@ args = 0, pretend = 0, frame = 0
 515              		@ frame_needed = 0, uses_anonymous_args = 0
 516 0000 08B5     		push	{r3, lr}
 517              		.cfi_def_cfa_offset 8
 518              		.cfi_offset 3, -8
 519              		.cfi_offset 14, -4
  58:Generated_Source\PSoC5/PWM_leftmotor.c ****     {
 520              		.loc 1 58 0
 521 0002 054B     		ldr	r3, .L54
 522 0004 1B78     		ldrb	r3, [r3]	@ zero_extendqisi2
 523 0006 23B9     		cbnz	r3, .L52
  60:Generated_Source\PSoC5/PWM_leftmotor.c ****         PWM_leftmotor_initVar = 1u;
 524              		.loc 1 60 0
 525 0008 FFF7FEFF 		bl	PWM_leftmotor_Init
 526              	.LVL26:
  61:Generated_Source\PSoC5/PWM_leftmotor.c ****     }
 527              		.loc 1 61 0
 528 000c 0122     		movs	r2, #1
 529 000e 024B     		ldr	r3, .L54
 530 0010 1A70     		strb	r2, [r3]
 531              	.L52:
  63:Generated_Source\PSoC5/PWM_leftmotor.c **** 
 532              		.loc 1 63 0
 533 0012 FFF7FEFF 		bl	PWM_leftmotor_Enable
 534              	.LVL27:
 535 0016 08BD     		pop	{r3, pc}
 536              	.L55:
 537              		.align	2
 538              	.L54:
 539 0018 00000000 		.word	.LANCHOR0
 540              		.cfi_endproc
 541              	.LFE0:
 542              		.size	PWM_leftmotor_Start, .-PWM_leftmotor_Start
 543              		.section	.text.PWM_leftmotor_ReadCompare1,"ax",%progbits
 544              		.align	2
 545              		.global	PWM_leftmotor_ReadCompare1
 546              		.thumb
 547              		.thumb_func
 548              		.type	PWM_leftmotor_ReadCompare1, %function
 549              	PWM_leftmotor_ReadCompare1:
 550              	.LFB17:
 794:Generated_Source\PSoC5/PWM_leftmotor.c **** 
 795:Generated_Source\PSoC5/PWM_leftmotor.c **** #endif /* (!PWM_leftmotor_UsingFixedFunction) */
ARM GAS  C:\Users\xliu430\AppData\Local\Temp\ccj5POyR.s 			page 25


 796:Generated_Source\PSoC5/PWM_leftmotor.c **** 
 797:Generated_Source\PSoC5/PWM_leftmotor.c **** 
 798:Generated_Source\PSoC5/PWM_leftmotor.c **** #if (PWM_leftmotor_UseOneCompareMode)
 799:Generated_Source\PSoC5/PWM_leftmotor.c **** 
 800:Generated_Source\PSoC5/PWM_leftmotor.c **** 
 801:Generated_Source\PSoC5/PWM_leftmotor.c ****     /*******************************************************************************
 802:Generated_Source\PSoC5/PWM_leftmotor.c ****     * Function Name: PWM_leftmotor_ReadCompare
 803:Generated_Source\PSoC5/PWM_leftmotor.c ****     ********************************************************************************
 804:Generated_Source\PSoC5/PWM_leftmotor.c ****     *
 805:Generated_Source\PSoC5/PWM_leftmotor.c ****     * Summary:
 806:Generated_Source\PSoC5/PWM_leftmotor.c ****     *  Reads the compare value for the compare output when the PWM Mode parameter is
 807:Generated_Source\PSoC5/PWM_leftmotor.c ****     *  set to Dither mode, Center Aligned mode, or One Output mode.
 808:Generated_Source\PSoC5/PWM_leftmotor.c ****     *
 809:Generated_Source\PSoC5/PWM_leftmotor.c ****     * Parameters:
 810:Generated_Source\PSoC5/PWM_leftmotor.c ****     *  None
 811:Generated_Source\PSoC5/PWM_leftmotor.c ****     *
 812:Generated_Source\PSoC5/PWM_leftmotor.c ****     * Return:
 813:Generated_Source\PSoC5/PWM_leftmotor.c ****     *  uint8/uint16: Current compare value
 814:Generated_Source\PSoC5/PWM_leftmotor.c ****     *
 815:Generated_Source\PSoC5/PWM_leftmotor.c ****     *******************************************************************************/
 816:Generated_Source\PSoC5/PWM_leftmotor.c ****     uint8 PWM_leftmotor_ReadCompare(void) 
 817:Generated_Source\PSoC5/PWM_leftmotor.c ****     {
 818:Generated_Source\PSoC5/PWM_leftmotor.c ****         #if(PWM_leftmotor_UsingFixedFunction)
 819:Generated_Source\PSoC5/PWM_leftmotor.c ****             return ((uint8)CY_GET_REG16(PWM_leftmotor_COMPARE1_LSB_PTR));
 820:Generated_Source\PSoC5/PWM_leftmotor.c ****         #else
 821:Generated_Source\PSoC5/PWM_leftmotor.c ****             return (CY_GET_REG8(PWM_leftmotor_COMPARE1_LSB_PTR));
 822:Generated_Source\PSoC5/PWM_leftmotor.c ****         #endif /* (PWM_leftmotor_UsingFixedFunction) */
 823:Generated_Source\PSoC5/PWM_leftmotor.c ****     }
 824:Generated_Source\PSoC5/PWM_leftmotor.c **** 
 825:Generated_Source\PSoC5/PWM_leftmotor.c **** #else
 826:Generated_Source\PSoC5/PWM_leftmotor.c **** 
 827:Generated_Source\PSoC5/PWM_leftmotor.c **** 
 828:Generated_Source\PSoC5/PWM_leftmotor.c ****     /*******************************************************************************
 829:Generated_Source\PSoC5/PWM_leftmotor.c ****     * Function Name: PWM_leftmotor_ReadCompare1
 830:Generated_Source\PSoC5/PWM_leftmotor.c ****     ********************************************************************************
 831:Generated_Source\PSoC5/PWM_leftmotor.c ****     *
 832:Generated_Source\PSoC5/PWM_leftmotor.c ****     * Summary:
 833:Generated_Source\PSoC5/PWM_leftmotor.c ****     *  Reads the compare value for the compare1 output.
 834:Generated_Source\PSoC5/PWM_leftmotor.c ****     *
 835:Generated_Source\PSoC5/PWM_leftmotor.c ****     * Parameters:
 836:Generated_Source\PSoC5/PWM_leftmotor.c ****     *  None
 837:Generated_Source\PSoC5/PWM_leftmotor.c ****     *
 838:Generated_Source\PSoC5/PWM_leftmotor.c ****     * Return:
 839:Generated_Source\PSoC5/PWM_leftmotor.c ****     *  uint8/uint16: Current compare value.
 840:Generated_Source\PSoC5/PWM_leftmotor.c ****     *
 841:Generated_Source\PSoC5/PWM_leftmotor.c ****     *******************************************************************************/
 842:Generated_Source\PSoC5/PWM_leftmotor.c ****     uint8 PWM_leftmotor_ReadCompare1(void) 
 843:Generated_Source\PSoC5/PWM_leftmotor.c ****     {
 551              		.loc 1 843 0
 552              		.cfi_startproc
 553              		@ args = 0, pretend = 0, frame = 0
 554              		@ frame_needed = 0, uses_anonymous_args = 0
 555              		@ link register save eliminated.
 844:Generated_Source\PSoC5/PWM_leftmotor.c ****         return (CY_GET_REG8(PWM_leftmotor_COMPARE1_LSB_PTR));
 556              		.loc 1 844 0
 557 0000 014B     		ldr	r3, .L57
 558 0002 1878     		ldrb	r0, [r3]	@ zero_extendqisi2
ARM GAS  C:\Users\xliu430\AppData\Local\Temp\ccj5POyR.s 			page 26


 845:Generated_Source\PSoC5/PWM_leftmotor.c ****     }
 559              		.loc 1 845 0
 560 0004 7047     		bx	lr
 561              	.L58:
 562 0006 00BF     		.align	2
 563              	.L57:
 564 0008 2F640040 		.word	1073767471
 565              		.cfi_endproc
 566              	.LFE17:
 567              		.size	PWM_leftmotor_ReadCompare1, .-PWM_leftmotor_ReadCompare1
 568              		.section	.text.PWM_leftmotor_ReadCompare2,"ax",%progbits
 569              		.align	2
 570              		.global	PWM_leftmotor_ReadCompare2
 571              		.thumb
 572              		.thumb_func
 573              		.type	PWM_leftmotor_ReadCompare2, %function
 574              	PWM_leftmotor_ReadCompare2:
 575              	.LFB18:
 846:Generated_Source\PSoC5/PWM_leftmotor.c **** 
 847:Generated_Source\PSoC5/PWM_leftmotor.c **** 
 848:Generated_Source\PSoC5/PWM_leftmotor.c ****     /*******************************************************************************
 849:Generated_Source\PSoC5/PWM_leftmotor.c ****     * Function Name: PWM_leftmotor_ReadCompare2
 850:Generated_Source\PSoC5/PWM_leftmotor.c ****     ********************************************************************************
 851:Generated_Source\PSoC5/PWM_leftmotor.c ****     *
 852:Generated_Source\PSoC5/PWM_leftmotor.c ****     * Summary:
 853:Generated_Source\PSoC5/PWM_leftmotor.c ****     *  Reads the compare value for the compare2 output.
 854:Generated_Source\PSoC5/PWM_leftmotor.c ****     *
 855:Generated_Source\PSoC5/PWM_leftmotor.c ****     * Parameters:
 856:Generated_Source\PSoC5/PWM_leftmotor.c ****     *  None
 857:Generated_Source\PSoC5/PWM_leftmotor.c ****     *
 858:Generated_Source\PSoC5/PWM_leftmotor.c ****     * Return:
 859:Generated_Source\PSoC5/PWM_leftmotor.c ****     *  uint8/uint16: Current compare value.
 860:Generated_Source\PSoC5/PWM_leftmotor.c ****     *
 861:Generated_Source\PSoC5/PWM_leftmotor.c ****     *******************************************************************************/
 862:Generated_Source\PSoC5/PWM_leftmotor.c ****     uint8 PWM_leftmotor_ReadCompare2(void) 
 863:Generated_Source\PSoC5/PWM_leftmotor.c ****     {
 576              		.loc 1 863 0
 577              		.cfi_startproc
 578              		@ args = 0, pretend = 0, frame = 0
 579              		@ frame_needed = 0, uses_anonymous_args = 0
 580              		@ link register save eliminated.
 864:Generated_Source\PSoC5/PWM_leftmotor.c ****         return (CY_GET_REG8(PWM_leftmotor_COMPARE2_LSB_PTR));
 581              		.loc 1 864 0
 582 0000 014B     		ldr	r3, .L60
 583 0002 1878     		ldrb	r0, [r3]	@ zero_extendqisi2
 865:Generated_Source\PSoC5/PWM_leftmotor.c ****     }
 584              		.loc 1 865 0
 585 0004 7047     		bx	lr
 586              	.L61:
 587 0006 00BF     		.align	2
 588              	.L60:
 589 0008 3F640040 		.word	1073767487
 590              		.cfi_endproc
 591              	.LFE18:
 592              		.size	PWM_leftmotor_ReadCompare2, .-PWM_leftmotor_ReadCompare2
 593              		.section	.text.PWM_leftmotor_ReadPeriod,"ax",%progbits
 594              		.align	2
ARM GAS  C:\Users\xliu430\AppData\Local\Temp\ccj5POyR.s 			page 27


 595              		.global	PWM_leftmotor_ReadPeriod
 596              		.thumb
 597              		.thumb_func
 598              		.type	PWM_leftmotor_ReadPeriod, %function
 599              	PWM_leftmotor_ReadPeriod:
 600              	.LFB19:
 866:Generated_Source\PSoC5/PWM_leftmotor.c **** 
 867:Generated_Source\PSoC5/PWM_leftmotor.c **** #endif /* (PWM_leftmotor_UseOneCompareMode) */
 868:Generated_Source\PSoC5/PWM_leftmotor.c **** 
 869:Generated_Source\PSoC5/PWM_leftmotor.c **** 
 870:Generated_Source\PSoC5/PWM_leftmotor.c **** /*******************************************************************************
 871:Generated_Source\PSoC5/PWM_leftmotor.c **** * Function Name: PWM_leftmotor_ReadPeriod
 872:Generated_Source\PSoC5/PWM_leftmotor.c **** ********************************************************************************
 873:Generated_Source\PSoC5/PWM_leftmotor.c **** *
 874:Generated_Source\PSoC5/PWM_leftmotor.c **** * Summary:
 875:Generated_Source\PSoC5/PWM_leftmotor.c **** *  Reads the period value used by the PWM hardware.
 876:Generated_Source\PSoC5/PWM_leftmotor.c **** *
 877:Generated_Source\PSoC5/PWM_leftmotor.c **** * Parameters:
 878:Generated_Source\PSoC5/PWM_leftmotor.c **** *  None
 879:Generated_Source\PSoC5/PWM_leftmotor.c **** *
 880:Generated_Source\PSoC5/PWM_leftmotor.c **** * Return:
 881:Generated_Source\PSoC5/PWM_leftmotor.c **** *  uint8/16: Period value
 882:Generated_Source\PSoC5/PWM_leftmotor.c **** *
 883:Generated_Source\PSoC5/PWM_leftmotor.c **** *******************************************************************************/
 884:Generated_Source\PSoC5/PWM_leftmotor.c **** uint8 PWM_leftmotor_ReadPeriod(void) 
 885:Generated_Source\PSoC5/PWM_leftmotor.c **** {
 601              		.loc 1 885 0
 602              		.cfi_startproc
 603              		@ args = 0, pretend = 0, frame = 0
 604              		@ frame_needed = 0, uses_anonymous_args = 0
 605              		@ link register save eliminated.
 886:Generated_Source\PSoC5/PWM_leftmotor.c ****     #if(PWM_leftmotor_UsingFixedFunction)
 887:Generated_Source\PSoC5/PWM_leftmotor.c ****         return ((uint8)CY_GET_REG16(PWM_leftmotor_PERIOD_LSB_PTR));
 888:Generated_Source\PSoC5/PWM_leftmotor.c ****     #else
 889:Generated_Source\PSoC5/PWM_leftmotor.c ****         return (CY_GET_REG8(PWM_leftmotor_PERIOD_LSB_PTR));
 606              		.loc 1 889 0
 607 0000 014B     		ldr	r3, .L63
 608 0002 1878     		ldrb	r0, [r3]	@ zero_extendqisi2
 890:Generated_Source\PSoC5/PWM_leftmotor.c ****     #endif /* (PWM_leftmotor_UsingFixedFunction) */
 891:Generated_Source\PSoC5/PWM_leftmotor.c **** }
 609              		.loc 1 891 0
 610 0004 7047     		bx	lr
 611              	.L64:
 612 0006 00BF     		.align	2
 613              	.L63:
 614 0008 4F640040 		.word	1073767503
 615              		.cfi_endproc
 616              	.LFE19:
 617              		.size	PWM_leftmotor_ReadPeriod, .-PWM_leftmotor_ReadPeriod
 618              		.global	PWM_leftmotor_initVar
 619              		.bss
 620              		.set	.LANCHOR0,. + 0
 621              		.type	PWM_leftmotor_initVar, %object
 622              		.size	PWM_leftmotor_initVar, 1
 623              	PWM_leftmotor_initVar:
 624 0000 00       		.space	1
 625              		.text
ARM GAS  C:\Users\xliu430\AppData\Local\Temp\ccj5POyR.s 			page 28


 626              	.Letext0:
 627              		.file 2 "Generated_Source\\PSoC5\\cytypes.h"
 628              		.file 3 "Generated_Source\\PSoC5\\CyLib.h"