ARM GAS  C:\Users\xliu430\AppData\Local\Temp\ccORQOZ5.s 			page 1


   1              		.syntax unified
   2              		.cpu cortex-m3
   3              		.fpu softvfp
   4              		.eabi_attribute 20, 1
   5              		.eabi_attribute 21, 1
   6              		.eabi_attribute 23, 3
   7              		.eabi_attribute 24, 1
   8              		.eabi_attribute 25, 1
   9              		.eabi_attribute 26, 1
  10              		.eabi_attribute 30, 1
  11              		.eabi_attribute 34, 1
  12              		.eabi_attribute 18, 4
  13              		.thumb
  14              		.syntax unified
  15              		.file	"cyfitter_cfg.c"
  16              		.text
  17              	.Ltext0:
  18              		.cfi_sections	.debug_frame
  19              		.section	.text.cfg_write_bytes32,"ax",%progbits
  20              		.align	2
  21              		.thumb
  22              		.thumb_func
  23              		.type	cfg_write_bytes32, %function
  24              	cfg_write_bytes32:
  25              	.LFB3:
  26              		.file 1 "Generated_Source\\PSoC5\\cyfitter_cfg.c"
   1:Generated_Source\PSoC5/cyfitter_cfg.c **** 
   2:Generated_Source\PSoC5/cyfitter_cfg.c **** /*******************************************************************************
   3:Generated_Source\PSoC5/cyfitter_cfg.c **** * File Name: cyfitter_cfg.c
   4:Generated_Source\PSoC5/cyfitter_cfg.c **** * 
   5:Generated_Source\PSoC5/cyfitter_cfg.c **** * PSoC Creator  4.2
   6:Generated_Source\PSoC5/cyfitter_cfg.c **** *
   7:Generated_Source\PSoC5/cyfitter_cfg.c **** * Description:
   8:Generated_Source\PSoC5/cyfitter_cfg.c **** * This file contains device initialization code.
   9:Generated_Source\PSoC5/cyfitter_cfg.c **** * Except for the user defined sections in CyClockStartupError(), this file should not be modified.
  10:Generated_Source\PSoC5/cyfitter_cfg.c **** * This file is automatically generated by PSoC Creator.
  11:Generated_Source\PSoC5/cyfitter_cfg.c **** *
  12:Generated_Source\PSoC5/cyfitter_cfg.c **** ********************************************************************************
  13:Generated_Source\PSoC5/cyfitter_cfg.c **** * Copyright (c) 2007-2018 Cypress Semiconductor.  All rights reserved.
  14:Generated_Source\PSoC5/cyfitter_cfg.c **** * You may use this file only in accordance with the license, terms, conditions, 
  15:Generated_Source\PSoC5/cyfitter_cfg.c **** * disclaimers, and limitations in the end user license agreement accompanying 
  16:Generated_Source\PSoC5/cyfitter_cfg.c **** * the software package with which this file was provided.
  17:Generated_Source\PSoC5/cyfitter_cfg.c **** ********************************************************************************/
  18:Generated_Source\PSoC5/cyfitter_cfg.c **** 
  19:Generated_Source\PSoC5/cyfitter_cfg.c **** #include <string.h>
  20:Generated_Source\PSoC5/cyfitter_cfg.c **** #include "cytypes.h"
  21:Generated_Source\PSoC5/cyfitter_cfg.c **** #include "cydevice_trm.h"
  22:Generated_Source\PSoC5/cyfitter_cfg.c **** #include "cyfitter.h"
  23:Generated_Source\PSoC5/cyfitter_cfg.c **** #include "CyLib.h"
  24:Generated_Source\PSoC5/cyfitter_cfg.c **** #include "cyfitter_cfg.h"
  25:Generated_Source\PSoC5/cyfitter_cfg.c **** #include "cyapicallbacks.h"
  26:Generated_Source\PSoC5/cyfitter_cfg.c **** 
  27:Generated_Source\PSoC5/cyfitter_cfg.c **** 
  28:Generated_Source\PSoC5/cyfitter_cfg.c **** #if defined(__GNUC__) || defined(__ARMCC_VERSION)
  29:Generated_Source\PSoC5/cyfitter_cfg.c ****     #define CYPACKED 
  30:Generated_Source\PSoC5/cyfitter_cfg.c ****     #define CYPACKED_ATTR __attribute__ ((packed))
  31:Generated_Source\PSoC5/cyfitter_cfg.c ****     #define CYALIGNED __attribute__ ((aligned))
ARM GAS  C:\Users\xliu430\AppData\Local\Temp\ccORQOZ5.s 			page 2


  32:Generated_Source\PSoC5/cyfitter_cfg.c ****     #define CY_CFG_UNUSED __attribute__ ((unused))
  33:Generated_Source\PSoC5/cyfitter_cfg.c ****     #ifndef CY_CFG_SECTION
  34:Generated_Source\PSoC5/cyfitter_cfg.c ****         #define CY_CFG_SECTION __attribute__ ((section(".psocinit")))
  35:Generated_Source\PSoC5/cyfitter_cfg.c ****     #endif
  36:Generated_Source\PSoC5/cyfitter_cfg.c ****     
  37:Generated_Source\PSoC5/cyfitter_cfg.c ****     #if defined(__ARMCC_VERSION)
  38:Generated_Source\PSoC5/cyfitter_cfg.c ****         #define CY_CFG_MEMORY_BARRIER() __memory_changed()
  39:Generated_Source\PSoC5/cyfitter_cfg.c ****     #else
  40:Generated_Source\PSoC5/cyfitter_cfg.c ****         #define CY_CFG_MEMORY_BARRIER() __sync_synchronize()
  41:Generated_Source\PSoC5/cyfitter_cfg.c ****     #endif
  42:Generated_Source\PSoC5/cyfitter_cfg.c ****     
  43:Generated_Source\PSoC5/cyfitter_cfg.c **** #elif defined(__ICCARM__)
  44:Generated_Source\PSoC5/cyfitter_cfg.c ****     #include <intrinsics.h>
  45:Generated_Source\PSoC5/cyfitter_cfg.c **** 
  46:Generated_Source\PSoC5/cyfitter_cfg.c ****     #define CYPACKED __packed
  47:Generated_Source\PSoC5/cyfitter_cfg.c ****     #define CYPACKED_ATTR 
  48:Generated_Source\PSoC5/cyfitter_cfg.c ****     #define CYALIGNED _Pragma("data_alignment=4")
  49:Generated_Source\PSoC5/cyfitter_cfg.c ****     #define CY_CFG_UNUSED _Pragma("diag_suppress=Pe177")
  50:Generated_Source\PSoC5/cyfitter_cfg.c ****     #define CY_CFG_SECTION _Pragma("location=\".psocinit\"")
  51:Generated_Source\PSoC5/cyfitter_cfg.c ****     
  52:Generated_Source\PSoC5/cyfitter_cfg.c ****     #define CY_CFG_MEMORY_BARRIER() __DMB()
  53:Generated_Source\PSoC5/cyfitter_cfg.c ****     
  54:Generated_Source\PSoC5/cyfitter_cfg.c **** #else
  55:Generated_Source\PSoC5/cyfitter_cfg.c ****     #error Unsupported toolchain
  56:Generated_Source\PSoC5/cyfitter_cfg.c **** #endif
  57:Generated_Source\PSoC5/cyfitter_cfg.c **** 
  58:Generated_Source\PSoC5/cyfitter_cfg.c **** #ifndef CYCODE
  59:Generated_Source\PSoC5/cyfitter_cfg.c ****     #define CYCODE
  60:Generated_Source\PSoC5/cyfitter_cfg.c **** #endif
  61:Generated_Source\PSoC5/cyfitter_cfg.c **** #ifndef CYDATA
  62:Generated_Source\PSoC5/cyfitter_cfg.c ****     #define CYDATA
  63:Generated_Source\PSoC5/cyfitter_cfg.c **** #endif
  64:Generated_Source\PSoC5/cyfitter_cfg.c **** #ifndef CYFAR
  65:Generated_Source\PSoC5/cyfitter_cfg.c ****     #define CYFAR
  66:Generated_Source\PSoC5/cyfitter_cfg.c **** #endif
  67:Generated_Source\PSoC5/cyfitter_cfg.c **** #ifndef CYXDATA
  68:Generated_Source\PSoC5/cyfitter_cfg.c ****     #define CYXDATA
  69:Generated_Source\PSoC5/cyfitter_cfg.c **** #endif
  70:Generated_Source\PSoC5/cyfitter_cfg.c **** 
  71:Generated_Source\PSoC5/cyfitter_cfg.c **** 
  72:Generated_Source\PSoC5/cyfitter_cfg.c **** CY_CFG_UNUSED
  73:Generated_Source\PSoC5/cyfitter_cfg.c **** static void CYMEMZERO(void *s, size_t n);
  74:Generated_Source\PSoC5/cyfitter_cfg.c **** CY_CFG_UNUSED
  75:Generated_Source\PSoC5/cyfitter_cfg.c **** static void CYMEMZERO(void *s, size_t n)
  76:Generated_Source\PSoC5/cyfitter_cfg.c **** {
  77:Generated_Source\PSoC5/cyfitter_cfg.c **** 	(void)memset(s, 0, n);
  78:Generated_Source\PSoC5/cyfitter_cfg.c **** }
  79:Generated_Source\PSoC5/cyfitter_cfg.c **** CY_CFG_UNUSED
  80:Generated_Source\PSoC5/cyfitter_cfg.c **** static void CYCONFIGCPY(void *dest, const void *src, size_t n);
  81:Generated_Source\PSoC5/cyfitter_cfg.c **** CY_CFG_UNUSED
  82:Generated_Source\PSoC5/cyfitter_cfg.c **** static void CYCONFIGCPY(void *dest, const void *src, size_t n)
  83:Generated_Source\PSoC5/cyfitter_cfg.c **** {
  84:Generated_Source\PSoC5/cyfitter_cfg.c **** 	(void)memcpy(dest, src, n);
  85:Generated_Source\PSoC5/cyfitter_cfg.c **** }
  86:Generated_Source\PSoC5/cyfitter_cfg.c **** CY_CFG_UNUSED
  87:Generated_Source\PSoC5/cyfitter_cfg.c **** static void CYCONFIGCPYCODE(void *dest, const void *src, size_t n);
  88:Generated_Source\PSoC5/cyfitter_cfg.c **** CY_CFG_UNUSED
ARM GAS  C:\Users\xliu430\AppData\Local\Temp\ccORQOZ5.s 			page 3


  89:Generated_Source\PSoC5/cyfitter_cfg.c **** static void CYCONFIGCPYCODE(void *dest, const void *src, size_t n)
  90:Generated_Source\PSoC5/cyfitter_cfg.c **** {
  91:Generated_Source\PSoC5/cyfitter_cfg.c **** 	(void)memcpy(dest, src, n);
  92:Generated_Source\PSoC5/cyfitter_cfg.c **** }
  93:Generated_Source\PSoC5/cyfitter_cfg.c **** 
  94:Generated_Source\PSoC5/cyfitter_cfg.c **** 
  95:Generated_Source\PSoC5/cyfitter_cfg.c **** 
  96:Generated_Source\PSoC5/cyfitter_cfg.c **** 
  97:Generated_Source\PSoC5/cyfitter_cfg.c **** /* Clock startup error codes                                                   */
  98:Generated_Source\PSoC5/cyfitter_cfg.c **** #define CYCLOCKSTART_NO_ERROR    0u
  99:Generated_Source\PSoC5/cyfitter_cfg.c **** #define CYCLOCKSTART_XTAL_ERROR  1u
 100:Generated_Source\PSoC5/cyfitter_cfg.c **** #define CYCLOCKSTART_32KHZ_ERROR 2u
 101:Generated_Source\PSoC5/cyfitter_cfg.c **** #define CYCLOCKSTART_PLL_ERROR   3u
 102:Generated_Source\PSoC5/cyfitter_cfg.c **** #define CYCLOCKSTART_FLL_ERROR   4u
 103:Generated_Source\PSoC5/cyfitter_cfg.c **** #define CYCLOCKSTART_WCO_ERROR   5u
 104:Generated_Source\PSoC5/cyfitter_cfg.c **** 
 105:Generated_Source\PSoC5/cyfitter_cfg.c **** 
 106:Generated_Source\PSoC5/cyfitter_cfg.c **** #ifdef CY_NEED_CYCLOCKSTARTUPERROR
 107:Generated_Source\PSoC5/cyfitter_cfg.c **** /*******************************************************************************
 108:Generated_Source\PSoC5/cyfitter_cfg.c **** * Function Name: CyClockStartupError
 109:Generated_Source\PSoC5/cyfitter_cfg.c **** ********************************************************************************
 110:Generated_Source\PSoC5/cyfitter_cfg.c **** * Summary:
 111:Generated_Source\PSoC5/cyfitter_cfg.c **** *  If an error is encountered during clock configuration (crystal startup error,
 112:Generated_Source\PSoC5/cyfitter_cfg.c **** *  PLL lock error, etc.), the system will end up here.  Unless reimplemented by
 113:Generated_Source\PSoC5/cyfitter_cfg.c **** *  the customer, this function will stop in an infinite loop.
 114:Generated_Source\PSoC5/cyfitter_cfg.c **** *
 115:Generated_Source\PSoC5/cyfitter_cfg.c **** * Parameters:
 116:Generated_Source\PSoC5/cyfitter_cfg.c **** *   void
 117:Generated_Source\PSoC5/cyfitter_cfg.c **** *
 118:Generated_Source\PSoC5/cyfitter_cfg.c **** * Return:
 119:Generated_Source\PSoC5/cyfitter_cfg.c **** *   void
 120:Generated_Source\PSoC5/cyfitter_cfg.c **** *
 121:Generated_Source\PSoC5/cyfitter_cfg.c **** *******************************************************************************/
 122:Generated_Source\PSoC5/cyfitter_cfg.c **** CY_CFG_UNUSED
 123:Generated_Source\PSoC5/cyfitter_cfg.c **** static void CyClockStartupError(uint8 errorCode);
 124:Generated_Source\PSoC5/cyfitter_cfg.c **** CY_CFG_UNUSED
 125:Generated_Source\PSoC5/cyfitter_cfg.c **** static void CyClockStartupError(uint8 errorCode)
 126:Generated_Source\PSoC5/cyfitter_cfg.c **** {
 127:Generated_Source\PSoC5/cyfitter_cfg.c ****     /* To remove the compiler warning if errorCode not used.                */
 128:Generated_Source\PSoC5/cyfitter_cfg.c ****     errorCode = errorCode;
 129:Generated_Source\PSoC5/cyfitter_cfg.c **** 
 130:Generated_Source\PSoC5/cyfitter_cfg.c ****     /* If we have a clock startup error (bad MHz crystal, PLL lock, etc.),  */
 131:Generated_Source\PSoC5/cyfitter_cfg.c ****     /* we will end up here to allow the customer to implement something to  */
 132:Generated_Source\PSoC5/cyfitter_cfg.c ****     /* deal with the clock condition.                                       */
 133:Generated_Source\PSoC5/cyfitter_cfg.c **** 
 134:Generated_Source\PSoC5/cyfitter_cfg.c **** #ifdef CY_CFG_CLOCK_STARTUP_ERROR_CALLBACK
 135:Generated_Source\PSoC5/cyfitter_cfg.c ****     CY_CFG_Clock_Startup_ErrorCallback();
 136:Generated_Source\PSoC5/cyfitter_cfg.c **** #else
 137:Generated_Source\PSoC5/cyfitter_cfg.c ****     /*  If not using CY_CFG_CLOCK_STARTUP_ERROR_CALLBACK, place your clock startup code here. */
 138:Generated_Source\PSoC5/cyfitter_cfg.c ****     /* `#START CyClockStartupError` */
 139:Generated_Source\PSoC5/cyfitter_cfg.c **** 
 140:Generated_Source\PSoC5/cyfitter_cfg.c **** 
 141:Generated_Source\PSoC5/cyfitter_cfg.c **** 
 142:Generated_Source\PSoC5/cyfitter_cfg.c ****     /* `#END` */
 143:Generated_Source\PSoC5/cyfitter_cfg.c **** 
 144:Generated_Source\PSoC5/cyfitter_cfg.c ****     while(1) {}
 145:Generated_Source\PSoC5/cyfitter_cfg.c **** #endif /* CY_CFG_CLOCK_STARTUP_ERROR_CALLBACK */
ARM GAS  C:\Users\xliu430\AppData\Local\Temp\ccORQOZ5.s 			page 4


 146:Generated_Source\PSoC5/cyfitter_cfg.c **** }
 147:Generated_Source\PSoC5/cyfitter_cfg.c **** #endif
 148:Generated_Source\PSoC5/cyfitter_cfg.c **** 
 149:Generated_Source\PSoC5/cyfitter_cfg.c **** #define CY_CFG_BASE_ADDR_COUNT 27u
 150:Generated_Source\PSoC5/cyfitter_cfg.c **** CYPACKED typedef struct
 151:Generated_Source\PSoC5/cyfitter_cfg.c **** {
 152:Generated_Source\PSoC5/cyfitter_cfg.c **** 	uint8 offset;
 153:Generated_Source\PSoC5/cyfitter_cfg.c **** 	uint8 value;
 154:Generated_Source\PSoC5/cyfitter_cfg.c **** } CYPACKED_ATTR cy_cfg_addrvalue_t;
 155:Generated_Source\PSoC5/cyfitter_cfg.c **** 
 156:Generated_Source\PSoC5/cyfitter_cfg.c **** #define cy_cfg_addr_table ((const uint32 CYFAR *)0x48000000u)
 157:Generated_Source\PSoC5/cyfitter_cfg.c **** #define cy_cfg_data_table ((const cy_cfg_addrvalue_t CYFAR *)0x4800006Cu)
 158:Generated_Source\PSoC5/cyfitter_cfg.c **** 
 159:Generated_Source\PSoC5/cyfitter_cfg.c **** /* IOPINS0_8 Address: CYREG_PRT15_DR Size (bytes): 10 */
 160:Generated_Source\PSoC5/cyfitter_cfg.c **** #define BS_IOPINS0_8_VAL ((const uint8 CYFAR *)0x48000138u)
 161:Generated_Source\PSoC5/cyfitter_cfg.c **** 
 162:Generated_Source\PSoC5/cyfitter_cfg.c **** /* IOPINS0_1 Address: CYREG_PRT1_DM0 Size (bytes): 8 */
 163:Generated_Source\PSoC5/cyfitter_cfg.c **** #define BS_IOPINS0_1_VAL ((const uint8 CYFAR *)0x48000144u)
 164:Generated_Source\PSoC5/cyfitter_cfg.c **** 
 165:Generated_Source\PSoC5/cyfitter_cfg.c **** /* IOPINS0_2 Address: CYREG_PRT2_DM0 Size (bytes): 8 */
 166:Generated_Source\PSoC5/cyfitter_cfg.c **** #define BS_IOPINS0_2_VAL ((const uint8 CYFAR *)0x4800014Cu)
 167:Generated_Source\PSoC5/cyfitter_cfg.c **** 
 168:Generated_Source\PSoC5/cyfitter_cfg.c **** /* CYDEV_CLKDIST_ACFG0_CFG0 Address: CYREG_CLKDIST_ACFG0_CFG0 Size (bytes): 8 */
 169:Generated_Source\PSoC5/cyfitter_cfg.c **** #define BS_CYDEV_CLKDIST_ACFG0_CFG0_VAL ((const uint8 CYFAR *)0x48000154u)
 170:Generated_Source\PSoC5/cyfitter_cfg.c **** 
 171:Generated_Source\PSoC5/cyfitter_cfg.c **** 
 172:Generated_Source\PSoC5/cyfitter_cfg.c **** /*******************************************************************************
 173:Generated_Source\PSoC5/cyfitter_cfg.c **** * Function Name: cfg_write_bytes32
 174:Generated_Source\PSoC5/cyfitter_cfg.c **** ********************************************************************************
 175:Generated_Source\PSoC5/cyfitter_cfg.c **** * Summary:
 176:Generated_Source\PSoC5/cyfitter_cfg.c **** *  This function is used for setting up the chip configuration areas that
 177:Generated_Source\PSoC5/cyfitter_cfg.c **** *  contain relatively sparse data.
 178:Generated_Source\PSoC5/cyfitter_cfg.c **** *
 179:Generated_Source\PSoC5/cyfitter_cfg.c **** * Parameters:
 180:Generated_Source\PSoC5/cyfitter_cfg.c **** *   void
 181:Generated_Source\PSoC5/cyfitter_cfg.c **** *
 182:Generated_Source\PSoC5/cyfitter_cfg.c **** * Return:
 183:Generated_Source\PSoC5/cyfitter_cfg.c **** *   void
 184:Generated_Source\PSoC5/cyfitter_cfg.c **** *
 185:Generated_Source\PSoC5/cyfitter_cfg.c **** *******************************************************************************/
 186:Generated_Source\PSoC5/cyfitter_cfg.c **** static void cfg_write_bytes32(const uint32 addr_table[], const cy_cfg_addrvalue_t data_table[]);
 187:Generated_Source\PSoC5/cyfitter_cfg.c **** static void cfg_write_bytes32(const uint32 addr_table[], const cy_cfg_addrvalue_t data_table[])
 188:Generated_Source\PSoC5/cyfitter_cfg.c **** {
  27              		.loc 1 188 0
  28              		.cfi_startproc
  29              		@ args = 0, pretend = 0, frame = 0
  30              		@ frame_needed = 0, uses_anonymous_args = 0
  31              		@ link register save eliminated.
  32              	.LVL0:
  33 0000 F0B4     		push	{r4, r5, r6, r7}
  34              		.cfi_def_cfa_offset 16
  35              		.cfi_offset 4, -16
  36              		.cfi_offset 5, -12
  37              		.cfi_offset 6, -8
  38              		.cfi_offset 7, -4
  39              	.LVL1:
 189:Generated_Source\PSoC5/cyfitter_cfg.c **** 	/* For 32-bit little-endian architectures */
ARM GAS  C:\Users\xliu430\AppData\Local\Temp\ccORQOZ5.s 			page 5


 190:Generated_Source\PSoC5/cyfitter_cfg.c **** 	uint32 i, j = 0u;
  40              		.loc 1 190 0
  41 0002 0022     		movs	r2, #0
 191:Generated_Source\PSoC5/cyfitter_cfg.c **** 	for (i = 0u; i < CY_CFG_BASE_ADDR_COUNT; i++)
  42              		.loc 1 191 0
  43 0004 1746     		mov	r7, r2
  44 0006 11E0     		b	.L2
  45              	.LVL2:
  46              	.L5:
  47              	.LBB2:
 192:Generated_Source\PSoC5/cyfitter_cfg.c **** 	{
 193:Generated_Source\PSoC5/cyfitter_cfg.c **** 		uint32 baseAddr = addr_table[i];
  48              		.loc 1 193 0
  49 0008 50F82760 		ldr	r6, [r0, r7, lsl #2]
  50              	.LVL3:
 194:Generated_Source\PSoC5/cyfitter_cfg.c **** 		uint8 count = (uint8)baseAddr;
  51              		.loc 1 194 0
  52 000c F3B2     		uxtb	r3, r6
  53              	.LVL4:
 195:Generated_Source\PSoC5/cyfitter_cfg.c **** 		baseAddr &= 0xFFFFFF00u;
  54              		.loc 1 195 0
  55 000e 26F0FF06 		bic	r6, r6, #255
  56              	.LVL5:
 196:Generated_Source\PSoC5/cyfitter_cfg.c **** 		while (count != 0u)
  57              		.loc 1 196 0
  58 0012 08E0     		b	.L3
  59              	.L4:
 197:Generated_Source\PSoC5/cyfitter_cfg.c **** 		{
 198:Generated_Source\PSoC5/cyfitter_cfg.c **** 			CY_SET_REG8((void *)(baseAddr + data_table[j].offset), data_table[j].value);
  60              		.loc 1 198 0
  61 0014 01EB4205 		add	r5, r1, r2, lsl #1
  62 0018 11F81240 		ldrb	r4, [r1, r2, lsl #1]	@ zero_extendqisi2
  63 001c 6D78     		ldrb	r5, [r5, #1]	@ zero_extendqisi2
  64 001e A555     		strb	r5, [r4, r6]
 199:Generated_Source\PSoC5/cyfitter_cfg.c **** 			j++;
  65              		.loc 1 199 0
  66 0020 0132     		adds	r2, r2, #1
  67              	.LVL6:
 200:Generated_Source\PSoC5/cyfitter_cfg.c **** 			count--;
  68              		.loc 1 200 0
  69 0022 013B     		subs	r3, r3, #1
  70              	.LVL7:
  71 0024 DBB2     		uxtb	r3, r3
  72              	.LVL8:
  73              	.L3:
 196:Generated_Source\PSoC5/cyfitter_cfg.c **** 		{
  74              		.loc 1 196 0
  75 0026 002B     		cmp	r3, #0
  76 0028 F4D1     		bne	.L4
  77              	.LBE2:
 191:Generated_Source\PSoC5/cyfitter_cfg.c **** 	{
  78              		.loc 1 191 0 discriminator 2
  79 002a 0137     		adds	r7, r7, #1
  80              	.LVL9:
  81              	.L2:
 191:Generated_Source\PSoC5/cyfitter_cfg.c **** 	{
  82              		.loc 1 191 0 is_stmt 0 discriminator 1
ARM GAS  C:\Users\xliu430\AppData\Local\Temp\ccORQOZ5.s 			page 6


  83 002c 1A2F     		cmp	r7, #26
  84 002e EBD9     		bls	.L5
 201:Generated_Source\PSoC5/cyfitter_cfg.c **** 		}
 202:Generated_Source\PSoC5/cyfitter_cfg.c **** 	}
 203:Generated_Source\PSoC5/cyfitter_cfg.c **** }
  85              		.loc 1 203 0 is_stmt 1
  86 0030 F0BC     		pop	{r4, r5, r6, r7}
  87              		.cfi_restore 7
  88              		.cfi_restore 6
  89              		.cfi_restore 5
  90              		.cfi_restore 4
  91              		.cfi_def_cfa_offset 0
  92              	.LVL10:
  93 0032 7047     		bx	lr
  94              		.cfi_endproc
  95              	.LFE3:
  96              		.size	cfg_write_bytes32, .-cfg_write_bytes32
  97              		.section	.text.CYMEMZERO,"ax",%progbits
  98              		.align	2
  99              		.thumb
 100              		.thumb_func
 101              		.type	CYMEMZERO, %function
 102              	CYMEMZERO:
 103              	.LFB0:
  76:Generated_Source\PSoC5/cyfitter_cfg.c **** 	(void)memset(s, 0, n);
 104              		.loc 1 76 0
 105              		.cfi_startproc
 106              		@ args = 0, pretend = 0, frame = 0
 107              		@ frame_needed = 0, uses_anonymous_args = 0
 108              	.LVL11:
 109 0000 08B5     		push	{r3, lr}
 110              		.cfi_def_cfa_offset 8
 111              		.cfi_offset 3, -8
 112              		.cfi_offset 14, -4
  77:Generated_Source\PSoC5/cyfitter_cfg.c **** }
 113              		.loc 1 77 0
 114 0002 0A46     		mov	r2, r1
 115 0004 0021     		movs	r1, #0
 116              	.LVL12:
 117 0006 FFF7FEFF 		bl	memset
 118              	.LVL13:
 119 000a 08BD     		pop	{r3, pc}
 120              		.cfi_endproc
 121              	.LFE0:
 122              		.size	CYMEMZERO, .-CYMEMZERO
 123              		.section	.text.AnalogSetDefault,"ax",%progbits
 124              		.align	2
 125              		.thumb
 126              		.thumb_func
 127              		.type	AnalogSetDefault, %function
 128              	AnalogSetDefault:
 129              	.LFB5:
 204:Generated_Source\PSoC5/cyfitter_cfg.c **** 
 205:Generated_Source\PSoC5/cyfitter_cfg.c **** /*******************************************************************************
 206:Generated_Source\PSoC5/cyfitter_cfg.c **** * Function Name: ClockSetup
 207:Generated_Source\PSoC5/cyfitter_cfg.c **** ********************************************************************************
 208:Generated_Source\PSoC5/cyfitter_cfg.c **** *
ARM GAS  C:\Users\xliu430\AppData\Local\Temp\ccORQOZ5.s 			page 7


 209:Generated_Source\PSoC5/cyfitter_cfg.c **** * Summary:
 210:Generated_Source\PSoC5/cyfitter_cfg.c **** *  Performs the initialization of all of the clocks in the device based on the
 211:Generated_Source\PSoC5/cyfitter_cfg.c **** *  settings in the Clock tab of the DWR.  This includes enabling the requested
 212:Generated_Source\PSoC5/cyfitter_cfg.c **** *  clocks and setting the necessary dividers to produce the desired frequency. 
 213:Generated_Source\PSoC5/cyfitter_cfg.c **** *
 214:Generated_Source\PSoC5/cyfitter_cfg.c **** * Parameters:
 215:Generated_Source\PSoC5/cyfitter_cfg.c **** *  void
 216:Generated_Source\PSoC5/cyfitter_cfg.c **** *
 217:Generated_Source\PSoC5/cyfitter_cfg.c **** * Return:
 218:Generated_Source\PSoC5/cyfitter_cfg.c **** *  void
 219:Generated_Source\PSoC5/cyfitter_cfg.c **** *
 220:Generated_Source\PSoC5/cyfitter_cfg.c **** *******************************************************************************/
 221:Generated_Source\PSoC5/cyfitter_cfg.c **** static void ClockSetup(void);
 222:Generated_Source\PSoC5/cyfitter_cfg.c **** static void ClockSetup(void)
 223:Generated_Source\PSoC5/cyfitter_cfg.c **** {
 224:Generated_Source\PSoC5/cyfitter_cfg.c **** 	uint32 timeout;
 225:Generated_Source\PSoC5/cyfitter_cfg.c **** 	uint8 pllLock;
 226:Generated_Source\PSoC5/cyfitter_cfg.c **** 
 227:Generated_Source\PSoC5/cyfitter_cfg.c **** 
 228:Generated_Source\PSoC5/cyfitter_cfg.c **** 	/* Configure Digital Clocks based on settings from Clock DWR */
 229:Generated_Source\PSoC5/cyfitter_cfg.c **** 	CY_SET_XTND_REG16((void CYFAR *)(CYREG_CLKDIST_DCFG0_CFG0), 0x095Fu);
 230:Generated_Source\PSoC5/cyfitter_cfg.c **** 	CY_SET_XTND_REG8((void CYFAR *)(CYREG_CLKDIST_DCFG0_CFG0 + 0x2u), 0x19u);
 231:Generated_Source\PSoC5/cyfitter_cfg.c **** 	CY_SET_XTND_REG16((void CYFAR *)(CYREG_CLKDIST_DCFG1_CFG0), 0x095Fu);
 232:Generated_Source\PSoC5/cyfitter_cfg.c **** 	CY_SET_XTND_REG8((void CYFAR *)(CYREG_CLKDIST_DCFG1_CFG0 + 0x2u), 0x19u);
 233:Generated_Source\PSoC5/cyfitter_cfg.c **** 
 234:Generated_Source\PSoC5/cyfitter_cfg.c **** 	/* Configure Analog Clocks based on settings from Clock DWR */
 235:Generated_Source\PSoC5/cyfitter_cfg.c **** 	CYCONFIGCPY((void CYFAR *)(CYREG_CLKDIST_ACFG0_CFG0), (const void CYFAR *)(BS_CYDEV_CLKDIST_ACFG0_
 236:Generated_Source\PSoC5/cyfitter_cfg.c **** 
 237:Generated_Source\PSoC5/cyfitter_cfg.c **** 	/* Configure ILO based on settings from Clock DWR */
 238:Generated_Source\PSoC5/cyfitter_cfg.c **** 	CY_SET_XTND_REG8((void CYFAR *)(CYREG_SLOWCLK_ILO_CR0), 0x06u);
 239:Generated_Source\PSoC5/cyfitter_cfg.c **** 
 240:Generated_Source\PSoC5/cyfitter_cfg.c **** 	/* Configure IMO based on settings from Clock DWR */
 241:Generated_Source\PSoC5/cyfitter_cfg.c **** 	CY_SET_XTND_REG8((void CYFAR *)(CYREG_FASTCLK_IMO_CR), 0x52u);
 242:Generated_Source\PSoC5/cyfitter_cfg.c **** 	CY_SET_XTND_REG8((void CYFAR *)(CYREG_IMO_TR1), (CY_GET_XTND_REG8((void CYFAR *)CYREG_FLSHID_CUST_
 243:Generated_Source\PSoC5/cyfitter_cfg.c **** 
 244:Generated_Source\PSoC5/cyfitter_cfg.c **** 	/* Configure Bus/Master Clock based on settings from Clock DWR */
 245:Generated_Source\PSoC5/cyfitter_cfg.c **** 	CY_SET_XTND_REG16((void CYFAR *)(CYREG_CLKDIST_MSTR0), 0x0000u);
 246:Generated_Source\PSoC5/cyfitter_cfg.c **** 
 247:Generated_Source\PSoC5/cyfitter_cfg.c **** 	/* Configure PLL based on settings from Clock DWR */
 248:Generated_Source\PSoC5/cyfitter_cfg.c **** 	CY_SET_XTND_REG16((void CYFAR *)(CYREG_FASTCLK_PLL_P), 0x0708u);
 249:Generated_Source\PSoC5/cyfitter_cfg.c **** 	CY_SET_XTND_REG16((void CYFAR *)(CYREG_FASTCLK_PLL_CFG0), 0x1251u);
 250:Generated_Source\PSoC5/cyfitter_cfg.c **** 	/* Wait up to 250us for the PLL to lock */
 251:Generated_Source\PSoC5/cyfitter_cfg.c **** 	pllLock = 0u;
 252:Generated_Source\PSoC5/cyfitter_cfg.c **** 	for (timeout = 250u / 10u; (timeout > 0u) && (pllLock != 0x03u); timeout--)
 253:Generated_Source\PSoC5/cyfitter_cfg.c **** 	{ 
 254:Generated_Source\PSoC5/cyfitter_cfg.c **** 		pllLock = 0x03u & ((uint8)((uint8)pllLock << 1) | ((CY_GET_XTND_REG8((void CYFAR *)CYREG_FASTCLK_
 255:Generated_Source\PSoC5/cyfitter_cfg.c **** 		CyDelayCycles(10u * 48u); /* Delay 10us based on 48MHz clock */
 256:Generated_Source\PSoC5/cyfitter_cfg.c **** 	}
 257:Generated_Source\PSoC5/cyfitter_cfg.c **** 	CY_SET_XTND_REG8((void CYFAR *)(CYREG_CLKDIST_MSTR0), 0x07u);
 258:Generated_Source\PSoC5/cyfitter_cfg.c **** 	CY_SET_XTND_REG8((void CYFAR *)(CYREG_CLKDIST_BCFG0), 0x00u);
 259:Generated_Source\PSoC5/cyfitter_cfg.c **** 	CY_SET_XTND_REG8((void CYFAR *)(CYREG_CLKDIST_BCFG2), 0x48u);
 260:Generated_Source\PSoC5/cyfitter_cfg.c **** 	CY_SET_XTND_REG8((void CYFAR *)(CYREG_CLKDIST_MSTR0), 0x00u);
 261:Generated_Source\PSoC5/cyfitter_cfg.c **** 
 262:Generated_Source\PSoC5/cyfitter_cfg.c **** 	/* Configure USB Clock based on settings from Clock DWR */
 263:Generated_Source\PSoC5/cyfitter_cfg.c **** 	CY_SET_XTND_REG8((void CYFAR *)(CYREG_CLKDIST_UCFG), 0x00u);
 264:Generated_Source\PSoC5/cyfitter_cfg.c **** 	CY_SET_XTND_REG8((void CYFAR *)(CYREG_CLKDIST_LD), 0x02u);
 265:Generated_Source\PSoC5/cyfitter_cfg.c **** 	CY_SET_XTND_REG8((void CYFAR *)(CYREG_CLKDIST_DLY1), 0x04u);
ARM GAS  C:\Users\xliu430\AppData\Local\Temp\ccORQOZ5.s 			page 8


 266:Generated_Source\PSoC5/cyfitter_cfg.c **** 
 267:Generated_Source\PSoC5/cyfitter_cfg.c **** 	CY_SET_XTND_REG8((void CYFAR *)(CYREG_PM_ACT_CFG2), ((CY_GET_XTND_REG8((void CYFAR *)CYREG_PM_ACT_
 268:Generated_Source\PSoC5/cyfitter_cfg.c **** 	CY_SET_XTND_REG8((void CYFAR *)(CYREG_PM_ACT_CFG1), ((CY_GET_XTND_REG8((void CYFAR *)CYREG_PM_ACT_
 269:Generated_Source\PSoC5/cyfitter_cfg.c **** 	CY_SET_XTND_REG8((void CYFAR *)(CYREG_PM_ACT_CFG0), ((CY_GET_XTND_REG8((void CYFAR *)CYREG_PM_ACT_
 270:Generated_Source\PSoC5/cyfitter_cfg.c **** }
 271:Generated_Source\PSoC5/cyfitter_cfg.c **** 
 272:Generated_Source\PSoC5/cyfitter_cfg.c **** 
 273:Generated_Source\PSoC5/cyfitter_cfg.c **** /* Analog API Functions */
 274:Generated_Source\PSoC5/cyfitter_cfg.c **** 
 275:Generated_Source\PSoC5/cyfitter_cfg.c **** 
 276:Generated_Source\PSoC5/cyfitter_cfg.c **** /*******************************************************************************
 277:Generated_Source\PSoC5/cyfitter_cfg.c **** * Function Name: AnalogSetDefault
 278:Generated_Source\PSoC5/cyfitter_cfg.c **** ********************************************************************************
 279:Generated_Source\PSoC5/cyfitter_cfg.c **** *
 280:Generated_Source\PSoC5/cyfitter_cfg.c **** * Summary:
 281:Generated_Source\PSoC5/cyfitter_cfg.c **** *  Sets up the analog portions of the chip to default values based on chip
 282:Generated_Source\PSoC5/cyfitter_cfg.c **** *  configuration options from the project.
 283:Generated_Source\PSoC5/cyfitter_cfg.c **** *
 284:Generated_Source\PSoC5/cyfitter_cfg.c **** * Parameters:
 285:Generated_Source\PSoC5/cyfitter_cfg.c **** *  void
 286:Generated_Source\PSoC5/cyfitter_cfg.c **** *
 287:Generated_Source\PSoC5/cyfitter_cfg.c **** * Return:
 288:Generated_Source\PSoC5/cyfitter_cfg.c **** *  void
 289:Generated_Source\PSoC5/cyfitter_cfg.c **** *
 290:Generated_Source\PSoC5/cyfitter_cfg.c **** *******************************************************************************/
 291:Generated_Source\PSoC5/cyfitter_cfg.c **** static void AnalogSetDefault(void);
 292:Generated_Source\PSoC5/cyfitter_cfg.c **** static void AnalogSetDefault(void)
 293:Generated_Source\PSoC5/cyfitter_cfg.c **** {
 130              		.loc 1 293 0
 131              		.cfi_startproc
 132              		@ args = 0, pretend = 0, frame = 0
 133              		@ frame_needed = 0, uses_anonymous_args = 0
 134 0000 F8B5     		push	{r3, r4, r5, r6, r7, lr}
 135              		.cfi_def_cfa_offset 24
 136              		.cfi_offset 3, -24
 137              		.cfi_offset 4, -20
 138              		.cfi_offset 5, -16
 139              		.cfi_offset 6, -12
 140              		.cfi_offset 7, -8
 141              		.cfi_offset 14, -4
 294:Generated_Source\PSoC5/cyfitter_cfg.c **** 	uint8 bg_xover_inl_trim = CY_GET_XTND_REG8((void CYFAR *)(CYREG_FLSHID_MFG_CFG_BG_XOVER_INL_TRIM +
 142              		.loc 1 294 0
 143 0002 1E4B     		ldr	r3, .L11
 144 0004 1B78     		ldrb	r3, [r3]	@ zero_extendqisi2
 145 0006 DBB2     		uxtb	r3, r3
 146              	.LVL14:
 295:Generated_Source\PSoC5/cyfitter_cfg.c **** 	uint8 cr4 = CY_GET_XTND_REG8((void CYFAR *)(CYREG_RESET_CR4));
 147              		.loc 1 295 0
 148 0008 1D4E     		ldr	r6, .L11+4
 149 000a 3478     		ldrb	r4, [r6]	@ zero_extendqisi2
 150 000c E4B2     		uxtb	r4, r4
 151              	.LVL15:
 296:Generated_Source\PSoC5/cyfitter_cfg.c **** 	uint8 cr5 = CY_GET_XTND_REG8((void CYFAR *)(CYREG_RESET_CR5));
 152              		.loc 1 296 0
 153 000e 1D4F     		ldr	r7, .L11+8
 154 0010 3D78     		ldrb	r5, [r7]	@ zero_extendqisi2
 155 0012 EDB2     		uxtb	r5, r5
ARM GAS  C:\Users\xliu430\AppData\Local\Temp\ccORQOZ5.s 			page 9


 156              	.LVL16:
 297:Generated_Source\PSoC5/cyfitter_cfg.c **** 	CY_SET_XTND_REG8((void CYFAR *)(CYREG_BG_DFT0), (bg_xover_inl_trim & 0x07u));
 157              		.loc 1 297 0
 158 0014 03F00701 		and	r1, r3, #7
 159 0018 1B4A     		ldr	r2, .L11+12
 160 001a 1170     		strb	r1, [r2]
 298:Generated_Source\PSoC5/cyfitter_cfg.c **** 	CY_SET_XTND_REG8((void CYFAR *)(CYREG_BG_DFT1), ((bg_xover_inl_trim >> 4) & 0x0Fu));
 161              		.loc 1 298 0
 162 001c 1B09     		lsrs	r3, r3, #4
 163              	.LVL17:
 164 001e 0132     		adds	r2, r2, #1
 165 0020 1370     		strb	r3, [r2]
 299:Generated_Source\PSoC5/cyfitter_cfg.c **** 	/* Disable PRES while setting up SAR voltage reference */
 300:Generated_Source\PSoC5/cyfitter_cfg.c **** 	CY_SET_XTND_REG8((void CYFAR *)(CYREG_RESET_CR4), (cr4 | 0x03u));
 166              		.loc 1 300 0
 167 0022 44F00303 		orr	r3, r4, #3
 168 0026 3370     		strb	r3, [r6]
 301:Generated_Source\PSoC5/cyfitter_cfg.c **** 	CY_SET_XTND_REG8((void CYFAR *)(CYREG_RESET_CR5), (cr5 | 0x03u));
 169              		.loc 1 301 0
 170 0028 45F00303 		orr	r3, r5, #3
 171 002c 3B70     		strb	r3, [r7]
 302:Generated_Source\PSoC5/cyfitter_cfg.c **** 	CY_SET_XTND_REG8((void CYFAR *)CYREG_PRT2_AG, 0xC0u);
 172              		.loc 1 302 0
 173 002e C022     		movs	r2, #192
 174 0030 164B     		ldr	r3, .L11+16
 175 0032 1A70     		strb	r2, [r3]
 303:Generated_Source\PSoC5/cyfitter_cfg.c **** 	CY_SET_XTND_REG8((void CYFAR *)CYREG_PRT15_AG, 0x01u);
 176              		.loc 1 303 0
 177 0034 0122     		movs	r2, #1
 178 0036 D033     		adds	r3, r3, #208
 179 0038 1A70     		strb	r2, [r3]
 304:Generated_Source\PSoC5/cyfitter_cfg.c **** 	CY_SET_XTND_REG8((void CYFAR *)CYREG_SAR0_CSR1, 0x80u);
 180              		.loc 1 304 0
 181 003a 8023     		movs	r3, #128
 182 003c 02F18042 		add	r2, r2, #1073741824
 183 0040 02F5B242 		add	r2, r2, #22784
 184 0044 1370     		strb	r3, [r2]
 305:Generated_Source\PSoC5/cyfitter_cfg.c **** 	CY_SET_XTND_REG8((void CYFAR *)CYREG_SAR1_CSR1, 0x80u);
 185              		.loc 1 305 0
 186 0046 0832     		adds	r2, r2, #8
 187 0048 1370     		strb	r3, [r2]
 306:Generated_Source\PSoC5/cyfitter_cfg.c **** 	CY_SET_XTND_REG8((void CYFAR *)CYREG_DAC3_SW0, 0x10u);
 188              		.loc 1 306 0
 189 004a 1022     		movs	r2, #16
 190 004c 104B     		ldr	r3, .L11+20
 191 004e 1A70     		strb	r2, [r3]
 307:Generated_Source\PSoC5/cyfitter_cfg.c **** 	CY_SET_XTND_REG8((void CYFAR *)CYREG_SAR0_SW0, 0x04u);
 192              		.loc 1 307 0
 193 0050 0422     		movs	r2, #4
 194 0052 8833     		adds	r3, r3, #136
 195 0054 1A70     		strb	r2, [r3]
 308:Generated_Source\PSoC5/cyfitter_cfg.c **** 	CY_SET_XTND_REG8((void CYFAR *)CYREG_SAR0_SW3, 0x20u);
 196              		.loc 1 308 0
 197 0056 2022     		movs	r2, #32
 198 0058 0333     		adds	r3, r3, #3
 199 005a 1A70     		strb	r2, [r3]
 309:Generated_Source\PSoC5/cyfitter_cfg.c **** 	CY_SET_XTND_REG8((void CYFAR *)CYREG_SAR1_SW0, 0x08u);
ARM GAS  C:\Users\xliu430\AppData\Local\Temp\ccORQOZ5.s 			page 10


 200              		.loc 1 309 0
 201 005c 0823     		movs	r3, #8
 202 005e 0D49     		ldr	r1, .L11+24
 203 0060 0B70     		strb	r3, [r1]
 310:Generated_Source\PSoC5/cyfitter_cfg.c **** 	CY_SET_XTND_REG8((void CYFAR *)CYREG_SAR1_SW3, 0x20u);
 204              		.loc 1 310 0
 205 0062 0331     		adds	r1, r1, #3
 206 0064 0A70     		strb	r2, [r1]
 311:Generated_Source\PSoC5/cyfitter_cfg.c **** 	CY_SET_XTND_REG8((void CYFAR *)CYREG_BUS_SW0, 0x08u);
 207              		.loc 1 311 0
 208 0066 0C4A     		ldr	r2, .L11+28
 209 0068 1370     		strb	r3, [r2]
 312:Generated_Source\PSoC5/cyfitter_cfg.c **** 	CyDelayUs(10u); /* Allow vref to settle before re-enabling PRES */
 210              		.loc 1 312 0
 211 006a 0A20     		movs	r0, #10
 212 006c FFF7FEFF 		bl	CyDelayUs
 213              	.LVL18:
 313:Generated_Source\PSoC5/cyfitter_cfg.c **** 	CY_SET_XTND_REG8((void CYFAR *)(CYREG_RESET_CR5), (cr5));
 214              		.loc 1 313 0
 215 0070 3D70     		strb	r5, [r7]
 314:Generated_Source\PSoC5/cyfitter_cfg.c **** 	CY_SET_XTND_REG8((void CYFAR *)(CYREG_RESET_CR4), (cr4));
 216              		.loc 1 314 0
 217 0072 3470     		strb	r4, [r6]
 315:Generated_Source\PSoC5/cyfitter_cfg.c **** 	CY_SET_XTND_REG8((void CYFAR *)CYREG_PUMP_CR0, 0x44u);
 218              		.loc 1 315 0
 219 0074 4422     		movs	r2, #68
 220 0076 094B     		ldr	r3, .L11+32
 221 0078 1A70     		strb	r2, [r3]
 222 007a F8BD     		pop	{r3, r4, r5, r6, r7, pc}
 223              	.LVL19:
 224              	.L12:
 225              		.align	2
 226              	.L11:
 227 007c CF010049 		.word	1224737231
 228 0080 F8460040 		.word	1073759992
 229 0084 F9460040 		.word	1073759993
 230 0088 6E580040 		.word	1073764462
 231 008c 2D510040 		.word	1073762605
 232 0090 985A0040 		.word	1073765016
 233 0094 285B0040 		.word	1073765160
 234 0098 585B0040 		.word	1073765208
 235 009c 76580040 		.word	1073764470
 236              		.cfi_endproc
 237              	.LFE5:
 238              		.size	AnalogSetDefault, .-AnalogSetDefault
 239              		.section	.text.CYCONFIGCPY,"ax",%progbits
 240              		.align	2
 241              		.thumb
 242              		.thumb_func
 243              		.type	CYCONFIGCPY, %function
 244              	CYCONFIGCPY:
 245              	.LFB1:
  83:Generated_Source\PSoC5/cyfitter_cfg.c **** 	(void)memcpy(dest, src, n);
 246              		.loc 1 83 0
 247              		.cfi_startproc
 248              		@ args = 0, pretend = 0, frame = 0
 249              		@ frame_needed = 0, uses_anonymous_args = 0
ARM GAS  C:\Users\xliu430\AppData\Local\Temp\ccORQOZ5.s 			page 11


 250              	.LVL20:
 251 0000 08B5     		push	{r3, lr}
 252              		.cfi_def_cfa_offset 8
 253              		.cfi_offset 3, -8
 254              		.cfi_offset 14, -4
  84:Generated_Source\PSoC5/cyfitter_cfg.c **** }
 255              		.loc 1 84 0
 256 0002 FFF7FEFF 		bl	memcpy
 257              	.LVL21:
 258 0006 08BD     		pop	{r3, pc}
 259              		.cfi_endproc
 260              	.LFE1:
 261              		.size	CYCONFIGCPY, .-CYCONFIGCPY
 262              		.section	.text.ClockSetup,"ax",%progbits
 263              		.align	2
 264              		.thumb
 265              		.thumb_func
 266              		.type	ClockSetup, %function
 267              	ClockSetup:
 268              	.LFB4:
 223:Generated_Source\PSoC5/cyfitter_cfg.c **** 	uint32 timeout;
 269              		.loc 1 223 0
 270              		.cfi_startproc
 271              		@ args = 0, pretend = 0, frame = 0
 272              		@ frame_needed = 0, uses_anonymous_args = 0
 273 0000 38B5     		push	{r3, r4, r5, lr}
 274              		.cfi_def_cfa_offset 16
 275              		.cfi_offset 3, -16
 276              		.cfi_offset 4, -12
 277              		.cfi_offset 5, -8
 278              		.cfi_offset 14, -4
 229:Generated_Source\PSoC5/cyfitter_cfg.c **** 	CY_SET_XTND_REG8((void CYFAR *)(CYREG_CLKDIST_DCFG0_CFG0 + 0x2u), 0x19u);
 279              		.loc 1 229 0
 280 0002 40F65F13 		movw	r3, #2399
 281 0006 2C4A     		ldr	r2, .L20
 282 0008 1380     		strh	r3, [r2]	@ movhi
 230:Generated_Source\PSoC5/cyfitter_cfg.c **** 	CY_SET_XTND_REG16((void CYFAR *)(CYREG_CLKDIST_DCFG1_CFG0), 0x095Fu);
 283              		.loc 1 230 0
 284 000a 1925     		movs	r5, #25
 285 000c 0232     		adds	r2, r2, #2
 286 000e 1570     		strb	r5, [r2]
 231:Generated_Source\PSoC5/cyfitter_cfg.c **** 	CY_SET_XTND_REG8((void CYFAR *)(CYREG_CLKDIST_DCFG1_CFG0 + 0x2u), 0x19u);
 287              		.loc 1 231 0
 288 0010 0232     		adds	r2, r2, #2
 289 0012 1380     		strh	r3, [r2]	@ movhi
 232:Generated_Source\PSoC5/cyfitter_cfg.c **** 
 290              		.loc 1 232 0
 291 0014 294B     		ldr	r3, .L20+4
 292 0016 1D70     		strb	r5, [r3]
 235:Generated_Source\PSoC5/cyfitter_cfg.c **** 
 293              		.loc 1 235 0
 294 0018 0822     		movs	r2, #8
 295 001a 2949     		ldr	r1, .L20+8
 296 001c 2948     		ldr	r0, .L20+12
 297 001e FFF7FEFF 		bl	CYCONFIGCPY
 298              	.LVL22:
 238:Generated_Source\PSoC5/cyfitter_cfg.c **** 
ARM GAS  C:\Users\xliu430\AppData\Local\Temp\ccORQOZ5.s 			page 12


 299              		.loc 1 238 0
 300 0022 0622     		movs	r2, #6
 301 0024 284B     		ldr	r3, .L20+16
 302 0026 1A70     		strb	r2, [r3]
 241:Generated_Source\PSoC5/cyfitter_cfg.c **** 	CY_SET_XTND_REG8((void CYFAR *)(CYREG_IMO_TR1), (CY_GET_XTND_REG8((void CYFAR *)CYREG_FLSHID_CUST_
 303              		.loc 1 241 0
 304 0028 5222     		movs	r2, #82
 305 002a A3F58073 		sub	r3, r3, #256
 306 002e 1A70     		strb	r2, [r3]
 242:Generated_Source\PSoC5/cyfitter_cfg.c **** 
 307              		.loc 1 242 0
 308 0030 264B     		ldr	r3, .L20+20
 309 0032 1B78     		ldrb	r3, [r3]	@ zero_extendqisi2
 310 0034 DBB2     		uxtb	r3, r3
 311 0036 264A     		ldr	r2, .L20+24
 312 0038 1370     		strb	r3, [r2]
 245:Generated_Source\PSoC5/cyfitter_cfg.c **** 
 313              		.loc 1 245 0
 314 003a 0024     		movs	r4, #0
 315 003c 254B     		ldr	r3, .L20+28
 316 003e 1C80     		strh	r4, [r3]	@ movhi
 248:Generated_Source\PSoC5/cyfitter_cfg.c **** 	CY_SET_XTND_REG16((void CYFAR *)(CYREG_FASTCLK_PLL_CFG0), 0x1251u);
 317              		.loc 1 248 0
 318 0040 4FF4E162 		mov	r2, #1800
 319 0044 03F21E23 		addw	r3, r3, #542
 320 0048 1A80     		strh	r2, [r3]	@ movhi
 249:Generated_Source\PSoC5/cyfitter_cfg.c **** 	/* Wait up to 250us for the PLL to lock */
 321              		.loc 1 249 0
 322 004a 41F25122 		movw	r2, #4689
 323 004e 023B     		subs	r3, r3, #2
 324 0050 1A80     		strh	r2, [r3]	@ movhi
 325              	.LVL23:
 252:Generated_Source\PSoC5/cyfitter_cfg.c **** 	{ 
 326              		.loc 1 252 0
 327 0052 0CE0     		b	.L16
 328              	.LVL24:
 329              	.L18:
 254:Generated_Source\PSoC5/cyfitter_cfg.c **** 		CyDelayCycles(10u * 48u); /* Delay 10us based on 48MHz clock */
 330              		.loc 1 254 0 discriminator 4
 331 0054 204B     		ldr	r3, .L20+32
 332 0056 1B78     		ldrb	r3, [r3]	@ zero_extendqisi2
 333 0058 03F00103 		and	r3, r3, #1
 334 005c 43EA4404 		orr	r4, r3, r4, lsl #1
 335              	.LVL25:
 336 0060 04F00304 		and	r4, r4, #3
 337              	.LVL26:
 255:Generated_Source\PSoC5/cyfitter_cfg.c **** 	}
 338              		.loc 1 255 0 discriminator 4
 339 0064 4FF4F070 		mov	r0, #480
 340 0068 FFF7FEFF 		bl	CyDelayCycles
 341              	.LVL27:
 252:Generated_Source\PSoC5/cyfitter_cfg.c **** 	{ 
 342              		.loc 1 252 0 discriminator 4
 343 006c 013D     		subs	r5, r5, #1
 344              	.LVL28:
 345              	.L16:
 252:Generated_Source\PSoC5/cyfitter_cfg.c **** 	{ 
ARM GAS  C:\Users\xliu430\AppData\Local\Temp\ccORQOZ5.s 			page 13


 346              		.loc 1 252 0 is_stmt 0 discriminator 1
 347 006e 0DB1     		cbz	r5, .L17
 252:Generated_Source\PSoC5/cyfitter_cfg.c **** 	{ 
 348              		.loc 1 252 0 discriminator 3
 349 0070 032C     		cmp	r4, #3
 350 0072 EFD1     		bne	.L18
 351              	.L17:
 257:Generated_Source\PSoC5/cyfitter_cfg.c **** 	CY_SET_XTND_REG8((void CYFAR *)(CYREG_CLKDIST_BCFG0), 0x00u);
 352              		.loc 1 257 0 is_stmt 1
 353 0074 174A     		ldr	r2, .L20+28
 354 0076 0723     		movs	r3, #7
 355 0078 1370     		strb	r3, [r2]
 258:Generated_Source\PSoC5/cyfitter_cfg.c **** 	CY_SET_XTND_REG8((void CYFAR *)(CYREG_CLKDIST_BCFG2), 0x48u);
 356              		.loc 1 258 0
 357 007a 0023     		movs	r3, #0
 358 007c 1749     		ldr	r1, .L20+36
 359 007e 0B70     		strb	r3, [r1]
 259:Generated_Source\PSoC5/cyfitter_cfg.c **** 	CY_SET_XTND_REG8((void CYFAR *)(CYREG_CLKDIST_MSTR0), 0x00u);
 360              		.loc 1 259 0
 361 0080 4820     		movs	r0, #72
 362 0082 0231     		adds	r1, r1, #2
 363 0084 0870     		strb	r0, [r1]
 260:Generated_Source\PSoC5/cyfitter_cfg.c **** 
 364              		.loc 1 260 0
 365 0086 1370     		strb	r3, [r2]
 263:Generated_Source\PSoC5/cyfitter_cfg.c **** 	CY_SET_XTND_REG8((void CYFAR *)(CYREG_CLKDIST_LD), 0x02u);
 366              		.loc 1 263 0
 367 0088 0532     		adds	r2, r2, #5
 368 008a 1370     		strb	r3, [r2]
 264:Generated_Source\PSoC5/cyfitter_cfg.c **** 	CY_SET_XTND_REG8((void CYFAR *)(CYREG_CLKDIST_DLY1), 0x04u);
 369              		.loc 1 264 0
 370 008c 0222     		movs	r2, #2
 371 008e 144B     		ldr	r3, .L20+40
 372 0090 1A70     		strb	r2, [r3]
 265:Generated_Source\PSoC5/cyfitter_cfg.c **** 
 373              		.loc 1 265 0
 374 0092 0422     		movs	r2, #4
 375 0094 0A33     		adds	r3, r3, #10
 376 0096 1A70     		strb	r2, [r3]
 267:Generated_Source\PSoC5/cyfitter_cfg.c **** 	CY_SET_XTND_REG8((void CYFAR *)(CYREG_PM_ACT_CFG1), ((CY_GET_XTND_REG8((void CYFAR *)CYREG_PM_ACT_
 377              		.loc 1 267 0
 378 0098 124A     		ldr	r2, .L20+44
 379 009a 1378     		ldrb	r3, [r2]	@ zero_extendqisi2
 380 009c 43F00303 		orr	r3, r3, #3
 381 00a0 1370     		strb	r3, [r2]
 268:Generated_Source\PSoC5/cyfitter_cfg.c **** 	CY_SET_XTND_REG8((void CYFAR *)(CYREG_PM_ACT_CFG0), ((CY_GET_XTND_REG8((void CYFAR *)CYREG_PM_ACT_
 382              		.loc 1 268 0
 383 00a2 013A     		subs	r2, r2, #1
 384 00a4 1378     		ldrb	r3, [r2]	@ zero_extendqisi2
 385 00a6 43F00303 		orr	r3, r3, #3
 386 00aa 1370     		strb	r3, [r2]
 269:Generated_Source\PSoC5/cyfitter_cfg.c **** }
 387              		.loc 1 269 0
 388 00ac 013A     		subs	r2, r2, #1
 389 00ae 1378     		ldrb	r3, [r2]	@ zero_extendqisi2
 390 00b0 43F08003 		orr	r3, r3, #128
 391 00b4 1370     		strb	r3, [r2]
ARM GAS  C:\Users\xliu430\AppData\Local\Temp\ccORQOZ5.s 			page 14


 392 00b6 38BD     		pop	{r3, r4, r5, pc}
 393              	.LVL29:
 394              	.L21:
 395              		.align	2
 396              	.L20:
 397 00b8 80400040 		.word	1073758336
 398 00bc 86400040 		.word	1073758342
 399 00c0 54010048 		.word	1207959892
 400 00c4 00410040 		.word	1073758464
 401 00c8 00430040 		.word	1073758976
 402 00cc 0F010049 		.word	1224737039
 403 00d0 A1460040 		.word	1073759905
 404 00d4 04400040 		.word	1073758212
 405 00d8 25420040 		.word	1073758757
 406 00dc 06400040 		.word	1073758214
 407 00e0 01400040 		.word	1073758209
 408 00e4 A2430040 		.word	1073759138
 409              		.cfi_endproc
 410              	.LFE4:
 411              		.size	ClockSetup, .-ClockSetup
 412              		.section	.text.SetAnalogRoutingPumps,"ax",%progbits
 413              		.align	2
 414              		.global	SetAnalogRoutingPumps
 415              		.thumb
 416              		.thumb_func
 417              		.type	SetAnalogRoutingPumps, %function
 418              	SetAnalogRoutingPumps:
 419              	.LFB6:
 316:Generated_Source\PSoC5/cyfitter_cfg.c **** }
 317:Generated_Source\PSoC5/cyfitter_cfg.c **** 
 318:Generated_Source\PSoC5/cyfitter_cfg.c **** 
 319:Generated_Source\PSoC5/cyfitter_cfg.c **** /*******************************************************************************
 320:Generated_Source\PSoC5/cyfitter_cfg.c **** * Function Name: SetAnalogRoutingPumps
 321:Generated_Source\PSoC5/cyfitter_cfg.c **** ********************************************************************************
 322:Generated_Source\PSoC5/cyfitter_cfg.c **** *
 323:Generated_Source\PSoC5/cyfitter_cfg.c **** * Summary:
 324:Generated_Source\PSoC5/cyfitter_cfg.c **** * Enables or disables the analog pumps feeding analog routing switches.
 325:Generated_Source\PSoC5/cyfitter_cfg.c **** * Intended to be called at startup, based on the Vdda system configuration;
 326:Generated_Source\PSoC5/cyfitter_cfg.c **** * may be called during operation when the user informs us that the Vdda voltage
 327:Generated_Source\PSoC5/cyfitter_cfg.c **** * crossed the pump threshold.
 328:Generated_Source\PSoC5/cyfitter_cfg.c **** *
 329:Generated_Source\PSoC5/cyfitter_cfg.c **** * Parameters:
 330:Generated_Source\PSoC5/cyfitter_cfg.c **** *  enabled - 1 to enable the pumps, 0 to disable the pumps
 331:Generated_Source\PSoC5/cyfitter_cfg.c **** *
 332:Generated_Source\PSoC5/cyfitter_cfg.c **** * Return:
 333:Generated_Source\PSoC5/cyfitter_cfg.c **** *  void
 334:Generated_Source\PSoC5/cyfitter_cfg.c **** *
 335:Generated_Source\PSoC5/cyfitter_cfg.c **** *******************************************************************************/
 336:Generated_Source\PSoC5/cyfitter_cfg.c **** void SetAnalogRoutingPumps(uint8 enabled)
 337:Generated_Source\PSoC5/cyfitter_cfg.c **** {
 420              		.loc 1 337 0
 421              		.cfi_startproc
 422              		@ args = 0, pretend = 0, frame = 0
 423              		@ frame_needed = 0, uses_anonymous_args = 0
 424              		@ link register save eliminated.
 425              	.LVL30:
 338:Generated_Source\PSoC5/cyfitter_cfg.c **** 	uint8 regValue = CY_GET_XTND_REG8((void CYFAR *)CYREG_PUMP_CR0);
ARM GAS  C:\Users\xliu430\AppData\Local\Temp\ccORQOZ5.s 			page 15


 426              		.loc 1 338 0
 427 0000 054B     		ldr	r3, .L25
 428 0002 1B78     		ldrb	r3, [r3]	@ zero_extendqisi2
 429 0004 DBB2     		uxtb	r3, r3
 430              	.LVL31:
 339:Generated_Source\PSoC5/cyfitter_cfg.c **** 	if (enabled != 0u)
 431              		.loc 1 339 0
 432 0006 10B1     		cbz	r0, .L23
 340:Generated_Source\PSoC5/cyfitter_cfg.c **** 	{
 341:Generated_Source\PSoC5/cyfitter_cfg.c **** 		regValue |= 0x22u;
 433              		.loc 1 341 0
 434 0008 43F02203 		orr	r3, r3, #34
 435              	.LVL32:
 436 000c 01E0     		b	.L24
 437              	.L23:
 342:Generated_Source\PSoC5/cyfitter_cfg.c **** 	}
 343:Generated_Source\PSoC5/cyfitter_cfg.c **** 	else
 344:Generated_Source\PSoC5/cyfitter_cfg.c **** 	{
 345:Generated_Source\PSoC5/cyfitter_cfg.c **** 		regValue &= (uint8)~0x22u;
 438              		.loc 1 345 0
 439 000e 03F0DD03 		and	r3, r3, #221
 440              	.LVL33:
 441              	.L24:
 346:Generated_Source\PSoC5/cyfitter_cfg.c **** 	}
 347:Generated_Source\PSoC5/cyfitter_cfg.c **** 	CY_SET_XTND_REG8((void CYFAR *)CYREG_PUMP_CR0, regValue);
 442              		.loc 1 347 0
 443 0012 014A     		ldr	r2, .L25
 444 0014 1370     		strb	r3, [r2]
 445 0016 7047     		bx	lr
 446              	.L26:
 447              		.align	2
 448              	.L25:
 449 0018 76580040 		.word	1073764470
 450              		.cfi_endproc
 451              	.LFE6:
 452              		.size	SetAnalogRoutingPumps, .-SetAnalogRoutingPumps
 453              		.section	.text.cyfitter_cfg,"ax",%progbits
 454              		.align	2
 455              		.global	cyfitter_cfg
 456              		.thumb
 457              		.thumb_func
 458              		.type	cyfitter_cfg, %function
 459              	cyfitter_cfg:
 460              	.LFB7:
 348:Generated_Source\PSoC5/cyfitter_cfg.c **** }
 349:Generated_Source\PSoC5/cyfitter_cfg.c **** 
 350:Generated_Source\PSoC5/cyfitter_cfg.c **** 
 351:Generated_Source\PSoC5/cyfitter_cfg.c **** 
 352:Generated_Source\PSoC5/cyfitter_cfg.c **** 
 353:Generated_Source\PSoC5/cyfitter_cfg.c **** /*******************************************************************************
 354:Generated_Source\PSoC5/cyfitter_cfg.c **** * Function Name: cyfitter_cfg
 355:Generated_Source\PSoC5/cyfitter_cfg.c **** ********************************************************************************
 356:Generated_Source\PSoC5/cyfitter_cfg.c **** * Summary:
 357:Generated_Source\PSoC5/cyfitter_cfg.c **** *  This function is called by the start-up code for the selected device. It
 358:Generated_Source\PSoC5/cyfitter_cfg.c **** *  performs all of the necessary device configuration based on the design
 359:Generated_Source\PSoC5/cyfitter_cfg.c **** *  settings.  This includes settings from the Design Wide Resources (DWR) such
 360:Generated_Source\PSoC5/cyfitter_cfg.c **** *  as Clocks and Pins as well as any component configuration that is necessary.
ARM GAS  C:\Users\xliu430\AppData\Local\Temp\ccORQOZ5.s 			page 16


 361:Generated_Source\PSoC5/cyfitter_cfg.c **** *
 362:Generated_Source\PSoC5/cyfitter_cfg.c **** * Parameters:
 363:Generated_Source\PSoC5/cyfitter_cfg.c **** *   void
 364:Generated_Source\PSoC5/cyfitter_cfg.c **** *
 365:Generated_Source\PSoC5/cyfitter_cfg.c **** * Return:
 366:Generated_Source\PSoC5/cyfitter_cfg.c **** *   void
 367:Generated_Source\PSoC5/cyfitter_cfg.c **** *
 368:Generated_Source\PSoC5/cyfitter_cfg.c **** *******************************************************************************/
 369:Generated_Source\PSoC5/cyfitter_cfg.c **** 
 370:Generated_Source\PSoC5/cyfitter_cfg.c **** void cyfitter_cfg(void)
 371:Generated_Source\PSoC5/cyfitter_cfg.c **** {
 461              		.loc 1 371 0
 462              		.cfi_startproc
 463              		@ args = 0, pretend = 0, frame = 0
 464              		@ frame_needed = 0, uses_anonymous_args = 0
 465 0000 38B5     		push	{r3, r4, r5, lr}
 466              		.cfi_def_cfa_offset 16
 467              		.cfi_offset 3, -16
 468              		.cfi_offset 4, -12
 469              		.cfi_offset 5, -8
 470              		.cfi_offset 14, -4
 372:Generated_Source\PSoC5/cyfitter_cfg.c **** #ifdef CYGlobalIntDisable
 373:Generated_Source\PSoC5/cyfitter_cfg.c **** 	/* Disable interrupts by default. Let user enable if/when they want. */
 374:Generated_Source\PSoC5/cyfitter_cfg.c **** 	CYGlobalIntDisable
 471              		.loc 1 374 0
 472              		.syntax unified
 473              	@ 374 "Generated_Source\PSoC5\cyfitter_cfg.c" 1
 474 0002 72B6     		CPSID   i
 475              	@ 0 "" 2
 375:Generated_Source\PSoC5/cyfitter_cfg.c **** #endif
 376:Generated_Source\PSoC5/cyfitter_cfg.c **** 
 377:Generated_Source\PSoC5/cyfitter_cfg.c **** 	/* Enable/Disable Debug functionality based on settings from System DWR */
 378:Generated_Source\PSoC5/cyfitter_cfg.c **** 	CY_SET_XTND_REG8((void CYFAR *)CYREG_MLOGIC_DEBUG, (CY_GET_XTND_REG8((void CYFAR *)CYREG_MLOGIC_DE
 476              		.loc 1 378 0
 477              		.thumb
 478              		.syntax unified
 479 0004 294A     		ldr	r2, .L31
 480 0006 1378     		ldrb	r3, [r2]	@ zero_extendqisi2
 481 0008 43F00403 		orr	r3, r3, #4
 482 000c 1370     		strb	r3, [r2]
 483              	.LVL34:
 484              	.LBB3:
 379:Generated_Source\PSoC5/cyfitter_cfg.c **** 
 380:Generated_Source\PSoC5/cyfitter_cfg.c **** 	{
 381:Generated_Source\PSoC5/cyfitter_cfg.c **** 
 382:Generated_Source\PSoC5/cyfitter_cfg.c **** 		CYPACKED typedef struct {
 383:Generated_Source\PSoC5/cyfitter_cfg.c **** 			void CYFAR *address;
 384:Generated_Source\PSoC5/cyfitter_cfg.c **** 			uint16 size;
 385:Generated_Source\PSoC5/cyfitter_cfg.c **** 		} CYPACKED_ATTR cfg_memset_t;
 386:Generated_Source\PSoC5/cyfitter_cfg.c **** 
 387:Generated_Source\PSoC5/cyfitter_cfg.c **** 		static const cfg_memset_t CYCODE cfg_memset_list[] = {
 388:Generated_Source\PSoC5/cyfitter_cfg.c **** 			/* address, size */
 389:Generated_Source\PSoC5/cyfitter_cfg.c **** 			{(void CYFAR *)(CYREG_TMR0_CFG0), 24u},
 390:Generated_Source\PSoC5/cyfitter_cfg.c **** 			{(void CYFAR *)(CYREG_PRT0_DR), 16u},
 391:Generated_Source\PSoC5/cyfitter_cfg.c **** 			{(void CYFAR *)(CYREG_PRT3_DR), 64u},
 392:Generated_Source\PSoC5/cyfitter_cfg.c **** 			{(void CYFAR *)(CYREG_PRT12_DR), 16u},
 393:Generated_Source\PSoC5/cyfitter_cfg.c **** 			{(void CYFAR *)(CYDEV_UCFG_B0_P0_U0_BASE), 4096u},
ARM GAS  C:\Users\xliu430\AppData\Local\Temp\ccORQOZ5.s 			page 17


 394:Generated_Source\PSoC5/cyfitter_cfg.c **** 			{(void CYFAR *)(CYDEV_UCFG_B1_P2_U0_BASE), 2048u},
 395:Generated_Source\PSoC5/cyfitter_cfg.c **** 			{(void CYFAR *)(CYDEV_UCFG_DSI0_BASE), 2560u},
 396:Generated_Source\PSoC5/cyfitter_cfg.c **** 			{(void CYFAR *)(CYDEV_UCFG_DSI12_BASE), 512u},
 397:Generated_Source\PSoC5/cyfitter_cfg.c **** 			{(void CYFAR *)(CYREG_BCTL0_MDCLK_EN), 32u},
 398:Generated_Source\PSoC5/cyfitter_cfg.c **** 		};
 399:Generated_Source\PSoC5/cyfitter_cfg.c **** 
 400:Generated_Source\PSoC5/cyfitter_cfg.c **** 		uint8 CYDATA i;
 401:Generated_Source\PSoC5/cyfitter_cfg.c **** 
 402:Generated_Source\PSoC5/cyfitter_cfg.c **** 		/* Zero out critical memory blocks before beginning configuration */
 403:Generated_Source\PSoC5/cyfitter_cfg.c **** 		for (i = 0u; i < (sizeof(cfg_memset_list)/sizeof(cfg_memset_list[0])); i++)
 485              		.loc 1 403 0
 486 000e 0024     		movs	r4, #0
 487 0010 0CE0     		b	.L28
 488              	.LVL35:
 489              	.L29:
 490              	.LBB4:
 404:Generated_Source\PSoC5/cyfitter_cfg.c **** 		{
 405:Generated_Source\PSoC5/cyfitter_cfg.c **** 			const cfg_memset_t CYCODE * CYDATA ms = &cfg_memset_list[i];
 406:Generated_Source\PSoC5/cyfitter_cfg.c **** 			CYMEMZERO(ms->address, (size_t)(uint32)(ms->size));
 491              		.loc 1 406 0 discriminator 3
 492 0012 274D     		ldr	r5, .L31+4
 493 0014 6300     		lsls	r3, r4, #1
 494 0016 1919     		adds	r1, r3, r4
 495 0018 4A00     		lsls	r2, r1, #1
 496 001a 1146     		mov	r1, r2
 497 001c 2A44     		add	r2, r2, r5
 498 001e 0846     		mov	r0, r1
 499 0020 9188     		ldrh	r1, [r2, #4]
 500 0022 2858     		ldr	r0, [r5, r0]	@ unaligned
 501 0024 FFF7FEFF 		bl	CYMEMZERO
 502              	.LVL36:
 503              	.LBE4:
 403:Generated_Source\PSoC5/cyfitter_cfg.c **** 		{
 504              		.loc 1 403 0 discriminator 3
 505 0028 0134     		adds	r4, r4, #1
 506              	.LVL37:
 507 002a E4B2     		uxtb	r4, r4
 508              	.LVL38:
 509              	.L28:
 403:Generated_Source\PSoC5/cyfitter_cfg.c **** 		{
 510              		.loc 1 403 0 is_stmt 0 discriminator 1
 511 002c 082C     		cmp	r4, #8
 512 002e F0D9     		bls	.L29
 407:Generated_Source\PSoC5/cyfitter_cfg.c **** 		}
 408:Generated_Source\PSoC5/cyfitter_cfg.c **** 
 409:Generated_Source\PSoC5/cyfitter_cfg.c **** 		cfg_write_bytes32(cy_cfg_addr_table, cy_cfg_data_table);
 513              		.loc 1 409 0 is_stmt 1
 514 0030 2049     		ldr	r1, .L31+8
 515 0032 4FF09040 		mov	r0, #1207959552
 516 0036 FFF7FEFF 		bl	cfg_write_bytes32
 517              	.LVL39:
 410:Generated_Source\PSoC5/cyfitter_cfg.c **** 
 411:Generated_Source\PSoC5/cyfitter_cfg.c **** 		/* Enable digital routing */
 412:Generated_Source\PSoC5/cyfitter_cfg.c **** 		CY_SET_XTND_REG8((void CYFAR *)CYREG_BCTL0_BANK_CTL, CY_GET_XTND_REG8((void CYFAR *)CYREG_BCTL0_B
 518              		.loc 1 412 0
 519 003a 1F4A     		ldr	r2, .L31+12
 520 003c 1378     		ldrb	r3, [r2]	@ zero_extendqisi2
ARM GAS  C:\Users\xliu430\AppData\Local\Temp\ccORQOZ5.s 			page 18


 521 003e 43F00203 		orr	r3, r3, #2
 522 0042 1370     		strb	r3, [r2]
 413:Generated_Source\PSoC5/cyfitter_cfg.c **** 		CY_SET_XTND_REG8((void CYFAR *)CYREG_BCTL1_BANK_CTL, CY_GET_XTND_REG8((void CYFAR *)CYREG_BCTL1_B
 523              		.loc 1 413 0
 524 0044 1032     		adds	r2, r2, #16
 525 0046 1378     		ldrb	r3, [r2]	@ zero_extendqisi2
 526 0048 43F00203 		orr	r3, r3, #2
 527 004c 1370     		strb	r3, [r2]
 414:Generated_Source\PSoC5/cyfitter_cfg.c **** 
 415:Generated_Source\PSoC5/cyfitter_cfg.c **** 		/* Enable UDB array */
 416:Generated_Source\PSoC5/cyfitter_cfg.c **** 		CY_SET_XTND_REG8((void CYFAR *)CYREG_PM_ACT_CFG0, CY_GET_XTND_REG8((void CYFAR *)CYREG_PM_ACT_CFG
 528              		.loc 1 416 0
 529 004e 1B4C     		ldr	r4, .L31+16
 530              	.LVL40:
 531 0050 2378     		ldrb	r3, [r4]	@ zero_extendqisi2
 532 0052 43F04003 		orr	r3, r3, #64
 533 0056 2370     		strb	r3, [r4]
 417:Generated_Source\PSoC5/cyfitter_cfg.c **** 		CY_SET_XTND_REG8((void CYFAR *)CYREG_PM_AVAIL_CR2, CY_GET_XTND_REG8((void CYFAR *)CYREG_PM_AVAIL_
 534              		.loc 1 417 0
 535 0058 A2F58632 		sub	r2, r2, #68608
 536 005c 513A     		subs	r2, r2, #81
 537 005e 1378     		ldrb	r3, [r2]	@ zero_extendqisi2
 538 0060 43F01003 		orr	r3, r3, #16
 539 0064 1370     		strb	r3, [r2]
 540              	.LBE3:
 418:Generated_Source\PSoC5/cyfitter_cfg.c **** 	}
 419:Generated_Source\PSoC5/cyfitter_cfg.c **** 
 420:Generated_Source\PSoC5/cyfitter_cfg.c **** 
 421:Generated_Source\PSoC5/cyfitter_cfg.c **** 	/* Perform second pass device configuration. These items must be configured in specific order afte
 422:Generated_Source\PSoC5/cyfitter_cfg.c **** 	CYCONFIGCPY((void CYFAR *)(CYREG_PRT15_DR), (const void CYFAR *)(BS_IOPINS0_8_VAL), 10u);
 541              		.loc 1 422 0
 542 0066 0A22     		movs	r2, #10
 543 0068 1549     		ldr	r1, .L31+20
 544 006a 1648     		ldr	r0, .L31+24
 545 006c FFF7FEFF 		bl	CYCONFIGCPY
 546              	.LVL41:
 423:Generated_Source\PSoC5/cyfitter_cfg.c **** 	CYCONFIGCPY((void CYFAR *)(CYREG_PRT1_DM0), (const void CYFAR *)(BS_IOPINS0_1_VAL), 8u);
 547              		.loc 1 423 0
 548 0070 0822     		movs	r2, #8
 549 0072 1549     		ldr	r1, .L31+28
 550 0074 1548     		ldr	r0, .L31+32
 551 0076 FFF7FEFF 		bl	CYCONFIGCPY
 552              	.LVL42:
 424:Generated_Source\PSoC5/cyfitter_cfg.c **** 	CYCONFIGCPY((void CYFAR *)(CYREG_PRT2_DM0), (const void CYFAR *)(BS_IOPINS0_2_VAL), 8u);
 553              		.loc 1 424 0
 554 007a 0822     		movs	r2, #8
 555 007c 1449     		ldr	r1, .L31+36
 556 007e 1548     		ldr	r0, .L31+40
 557 0080 FFF7FEFF 		bl	CYCONFIGCPY
 558              	.LVL43:
 425:Generated_Source\PSoC5/cyfitter_cfg.c **** 	/* Switch Boost to the precision bandgap reference from its internal reference */
 426:Generated_Source\PSoC5/cyfitter_cfg.c **** 	CY_SET_REG8((void CYXDATA *)CYREG_BOOST_CR2, (CY_GET_REG8((void CYXDATA *)CYREG_BOOST_CR2) | 0x08u
 559              		.loc 1 426 0
 560 0084 144A     		ldr	r2, .L31+44
 561 0086 1378     		ldrb	r3, [r2]	@ zero_extendqisi2
 562 0088 43F00803 		orr	r3, r3, #8
 563 008c 1370     		strb	r3, [r2]
ARM GAS  C:\Users\xliu430\AppData\Local\Temp\ccORQOZ5.s 			page 19


 427:Generated_Source\PSoC5/cyfitter_cfg.c **** 
 428:Generated_Source\PSoC5/cyfitter_cfg.c **** 	/* Set Flash Cycles based on max possible frequency in case a glitch occurs during ClockSetup(). *
 429:Generated_Source\PSoC5/cyfitter_cfg.c **** 	CY_SET_XTND_REG8((void CYFAR *)(CYREG_CACHE_CC_CTL), (((CYDEV_INSTRUCT_CACHE_ENABLED) != 0) ? 0x61
 564              		.loc 1 429 0
 565 008e 134D     		ldr	r5, .L31+48
 566 0090 6123     		movs	r3, #97
 567 0092 2B70     		strb	r3, [r5]
 430:Generated_Source\PSoC5/cyfitter_cfg.c **** 	/* Setup clocks based on selections from Clock DWR */
 431:Generated_Source\PSoC5/cyfitter_cfg.c **** 	ClockSetup();
 568              		.loc 1 431 0
 569 0094 FFF7FEFF 		bl	ClockSetup
 570              	.LVL44:
 432:Generated_Source\PSoC5/cyfitter_cfg.c **** 	/* Set Flash Cycles based on newly configured 24.00MHz Bus Clock. */
 433:Generated_Source\PSoC5/cyfitter_cfg.c **** 	CY_SET_XTND_REG8((void CYFAR *)(CYREG_CACHE_CC_CTL), (((CYDEV_INSTRUCT_CACHE_ENABLED) != 0) ? 0x81
 571              		.loc 1 433 0
 572 0098 8123     		movs	r3, #129
 573 009a 2B70     		strb	r3, [r5]
 434:Generated_Source\PSoC5/cyfitter_cfg.c **** 
 435:Generated_Source\PSoC5/cyfitter_cfg.c **** 	/* Perform basic analog initialization to defaults */
 436:Generated_Source\PSoC5/cyfitter_cfg.c **** 	AnalogSetDefault();
 574              		.loc 1 436 0
 575 009c FFF7FEFF 		bl	AnalogSetDefault
 576              	.LVL45:
 437:Generated_Source\PSoC5/cyfitter_cfg.c **** 
 438:Generated_Source\PSoC5/cyfitter_cfg.c **** 	/* Configure alternate active mode */
 439:Generated_Source\PSoC5/cyfitter_cfg.c **** 	CYCONFIGCPY((void CYFAR *)CYDEV_PM_STBY_BASE, (const void CYFAR *)CYDEV_PM_ACT_BASE, 14u);
 577              		.loc 1 439 0
 578 00a0 0E22     		movs	r2, #14
 579 00a2 2146     		mov	r1, r4
 580 00a4 0E48     		ldr	r0, .L31+52
 581 00a6 FFF7FEFF 		bl	CYCONFIGCPY
 582              	.LVL46:
 583 00aa 38BD     		pop	{r3, r4, r5, pc}
 584              	.L32:
 585              		.align	2
 586              	.L31:
 587 00ac E8460040 		.word	1073759976
 588 00b0 00000000 		.word	.LANCHOR0
 589 00b4 6C000048 		.word	1207959660
 590 00b8 03500140 		.word	1073827843
 591 00bc A0430040 		.word	1073759136
 592 00c0 38010048 		.word	1207959864
 593 00c4 F0510040 		.word	1073762800
 594 00c8 44010048 		.word	1207959876
 595 00cc 12510040 		.word	1073762578
 596 00d0 4C010048 		.word	1207959884
 597 00d4 22510040 		.word	1073762594
 598 00d8 22430040 		.word	1073759010
 599 00dc 00480040 		.word	1073760256
 600 00e0 B0430040 		.word	1073759152
 601              		.cfi_endproc
 602              	.LFE7:
 603              		.size	cyfitter_cfg, .-cyfitter_cfg
 604              		.section	.rodata
 605              		.align	2
 606              		.set	.LANCHOR0,. + 0
 607              		.type	cfg_memset_list.5009, %object
ARM GAS  C:\Users\xliu430\AppData\Local\Temp\ccORQOZ5.s 			page 20


 608              		.size	cfg_memset_list.5009, 54
 609              	cfg_memset_list.5009:
 610 0000 004F0040 		.word	1073762048
 611 0004 1800     		.short	24
 612 0006 00510040 		.4byte	1073762560
 613 000a 1000     		.short	16
 614 000c 30510040 		.word	1073762608
 615 0010 4000     		.short	64
 616 0012 C0510040 		.4byte	1073762752
 617 0016 1000     		.short	16
 618 0018 00000140 		.word	1073807360
 619 001c 0010     		.short	4096
 620 001e 00140140 		.4byte	1073812480
 621 0022 0008     		.short	2048
 622 0024 00400140 		.word	1073823744
 623 0028 000A     		.short	2560
 624 002a 004C0140 		.4byte	1073826816
 625 002e 0002     		.short	512
 626 0030 00500140 		.word	1073827840
 627 0034 2000     		.short	32
 628              		.text
 629              	.Letext0:
 630              		.file 2 "c:\\program files (x86)\\cypress\\psoc creator\\4.2\\psoc creator\\import\\gnu\\arm\\5.4.
 631              		.file 3 "Generated_Source\\PSoC5\\cytypes.h"
 632              		.file 4 "Generated_Source\\PSoC5\\CyLib.h"