ARM GAS  C:\Users\fcho544\AppData\Local\Temp\ccoaNIzY.s 			page 1


   1              		.syntax unified
   2              		.cpu cortex-m3
   3              		.fpu softvfp
   4              		.eabi_attribute 20, 1
   5              		.eabi_attribute 21, 1
   6              		.eabi_attribute 23, 3
   7              		.eabi_attribute 24, 1
   8              		.eabi_attribute 25, 1
   9              		.eabi_attribute 26, 1
  10              		.eabi_attribute 30, 1
  11              		.eabi_attribute 34, 1
  12              		.eabi_attribute 18, 4
  13              		.thumb
  14              		.syntax unified
  15              		.file	"main.c"
  16              		.text
  17              	.Ltext0:
  18              		.cfi_sections	.debug_frame
  19              		.section	.text.eoc1,"ax",%progbits
  20              		.align	2
  21              		.global	eoc1
  22              		.thumb
  23              		.thumb_func
  24              		.type	eoc1, %function
  25              	eoc1:
  26              	.LFB67:
  27              		.file 1 "main.c"
   1:main.c        **** /* ========================================
   2:main.c        ****  *
   3:main.c        ****  * Copyright YOUR COMPANY, THE YEAR
   4:main.c        ****  * All Rights Reserved
   5:main.c        ****  * UNPUBLISHED, LICENSED SOFTWARE.
   6:main.c        ****  *
   7:main.c        ****  * CONFIDENTIAL AND PROPRIETARY INFORMATION
   8:main.c        ****  * WHICH IS THE PROPERTY OF your company.
   9:main.c        ****  *
  10:main.c        ****  * ========================================
  11:main.c        **** */
  12:main.c        **** #include "project.h"
  13:main.c        **** #include <stdio.h>
  14:main.c        **** #include <project.h>
  15:main.c        **** #include <string.h>
  16:main.c        **** 
  17:main.c        **** #define LIGHT_CMP_VALUE 200
  18:main.c        **** 
  19:main.c        **** int flag=0;
  20:main.c        **** int flag2=0;
  21:main.c        **** int flag3=0;
  22:main.c        **** int flag4=0;
  23:main.c        **** int flag5=0;
  24:main.c        **** int flag6=0;
  25:main.c        **** 
  26:main.c        **** int turnLock =0;
  27:main.c        **** 
  28:main.c        **** int count1 =0;
  29:main.c        **** int count2 =0;
  30:main.c        **** int count3 = 0;
ARM GAS  C:\Users\fcho544\AppData\Local\Temp\ccoaNIzY.s 			page 2


  31:main.c        **** int count4 = 0;
  32:main.c        **** int count5 = 0;
  33:main.c        **** int count6 = 0;
  34:main.c        **** 
  35:main.c        **** 
  36:main.c        **** int array[10] ={0};
  37:main.c        **** int array2[10] ={0};
  38:main.c        **** int array3[10] ={0};
  39:main.c        **** int array4[10] ={0};
  40:main.c        **** int array5[10] ={0};
  41:main.c        **** int array6[10] ={0};
  42:main.c        **** 
  43:main.c        **** 
  44:main.c        **** int motor1 = 0;
  45:main.c        **** int motor2 = 0;
  46:main.c        **** int motor3 = 0;
  47:main.c        **** int motor4 = 0;
  48:main.c        **** int motor5 = 0;
  49:main.c        **** int motor6 = 0;
  50:main.c        **** 
  51:main.c        **** 
  52:main.c        **** 
  53:main.c        **** int speed=0;
  54:main.c        **** int flag33=0;
  55:main.c        **** 
  56:main.c        **** int offset = 5;
  57:main.c        **** 
  58:main.c        **** int startDuty = 90;
  59:main.c        **** int leftDuty = 97;
  60:main.c        **** int rightDuty = 0;
  61:main.c        **** 
  62:main.c        **** 
  63:main.c        **** int leftTurn = 0;  //0  means no turns 
  64:main.c        **** int rightTurn = 0;
  65:main.c        **** int finishTurn = 0; // 0 means turn not finished
  66:main.c        **** 
  67:main.c        **** enum States {left_turn, right_turn, straight, stop, straight_left_adjust, straight_right_adjust};
  68:main.c        **** 
  69:main.c        **** 
  70:main.c        **** 
  71:main.c        **** int findMaximum(int array[10]){
  72:main.c        **** int maximum = 0;
  73:main.c        ****     for(int i = 0; i < 10; i ++){
  74:main.c        ****         if (array[i]> maximum){
  75:main.c        ****          maximum = array[i];
  76:main.c        ****         }  
  77:main.c        ****     }
  78:main.c        ****     return maximum;
  79:main.c        **** }
  80:main.c        **** 
  81:main.c        **** int findMinimum(int array[10]){
  82:main.c        **** int minimum = 10000;
  83:main.c        ****     for(int i = 0; i < 10; i ++){
  84:main.c        ****         if (array[i] < minimum){
  85:main.c        ****          minimum = array[i];
  86:main.c        ****         }  
  87:main.c        ****     }
ARM GAS  C:\Users\fcho544\AppData\Local\Temp\ccoaNIzY.s 			page 3


  88:main.c        ****     return minimum;
  89:main.c        **** }   
  90:main.c        **** 
  91:main.c        **** int getSensor(int result){            
  92:main.c        ****     // Using as a comparator / trigger
  93:main.c        ****    
  94:main.c        ****                     if(result < 200){
  95:main.c        ****                         return 1;
  96:main.c        ****                     }
  97:main.c        ****                     else{
  98:main.c        ****                         return 0;
  99:main.c        ****                     }
 100:main.c        ****             
 101:main.c        ****                     count1 = 0;
 102:main.c        ****                     memset(array,0,sizeof(array));
 103:main.c        ****                     flag = 0;
 104:main.c        **** }
 105:main.c        **** 
 106:main.c        **** 
 107:main.c        **** CY_ISR(eoc1){
  28              		.loc 1 107 0
  29              		.cfi_startproc
  30              		@ args = 0, pretend = 0, frame = 0
  31              		@ frame_needed = 0, uses_anonymous_args = 0
  32 0000 08B5     		push	{r3, lr}
  33              		.cfi_def_cfa_offset 8
  34              		.cfi_offset 3, -8
  35              		.cfi_offset 14, -4
 108:main.c        ****     
 109:main.c        **** //    for(int i = 0; i < 5; i++) { // 5 is max ADC Channel
 110:main.c        **** //        int16 val = ADC_SAR_Seq_1_GetResult16(i);
 111:main.c        **** //        
 112:main.c        **** //        array[i] = ADC_SAR_Seq_1_CountsTo_mVolts(val);
 113:main.c        **** //    }
 114:main.c        **** // 
 115:main.c        ****     
 116:main.c        ****     
 117:main.c        ****     if(count1 < 9){
  36              		.loc 1 117 0
  37 0002 444B     		ldr	r3, .L15
  38 0004 1B68     		ldr	r3, [r3]
  39 0006 082B     		cmp	r3, #8
  40 0008 0CDC     		bgt	.L2
  41              	.LBB2:
 118:main.c        ****         int  val= ADC_SAR_Seq_1_GetResult16(0);
  42              		.loc 1 118 0
  43 000a 0020     		movs	r0, #0
  44 000c FFF7FEFF 		bl	ADC_SAR_Seq_1_GetResult16
  45              	.LVL0:
 119:main.c        ****         
 120:main.c        ****         int mVolts = ADC_SAR_Seq_1_CountsTo_mVolts(val);
  46              		.loc 1 120 0
  47 0010 FFF7FEFF 		bl	ADC_SAR_Seq_1_CountsTo_mVolts
  48              	.LVL1:
 121:main.c        ****         array[count1] = mVolts;
  49              		.loc 1 121 0
  50 0014 3F4A     		ldr	r2, .L15
ARM GAS  C:\Users\fcho544\AppData\Local\Temp\ccoaNIzY.s 			page 4


  51 0016 1368     		ldr	r3, [r2]
  52 0018 02EB8301 		add	r1, r2, r3, lsl #2
  53 001c 4860     		str	r0, [r1, #4]
 122:main.c        ****         count1++;
  54              		.loc 1 122 0
  55 001e 0133     		adds	r3, r3, #1
  56 0020 1360     		str	r3, [r2]
  57              	.LBE2:
  58 0022 02E0     		b	.L3
  59              	.LVL2:
  60              	.L2:
 123:main.c        ****         }
 124:main.c        ****     else{
 125:main.c        ****         //Timer_1_Stop();
 126:main.c        ****         count1 = 0;
  61              		.loc 1 126 0
  62 0024 0022     		movs	r2, #0
  63 0026 3B4B     		ldr	r3, .L15
  64 0028 1A60     		str	r2, [r3]
  65              	.L3:
 127:main.c        ****     }
 128:main.c        ****     
 129:main.c        ****     if(count2 < 9){
  66              		.loc 1 129 0
  67 002a 3A4B     		ldr	r3, .L15
  68 002c DB6A     		ldr	r3, [r3, #44]
  69 002e 082B     		cmp	r3, #8
  70 0030 0CDC     		bgt	.L4
  71              	.LBB3:
 130:main.c        ****         int  val2=ADC_SAR_Seq_1_GetResult16(1);
  72              		.loc 1 130 0
  73 0032 0120     		movs	r0, #1
  74 0034 FFF7FEFF 		bl	ADC_SAR_Seq_1_GetResult16
  75              	.LVL3:
 131:main.c        ****         int mVolts2 = ADC_SAR_Seq_1_CountsTo_mVolts(val2);
  76              		.loc 1 131 0
  77 0038 FFF7FEFF 		bl	ADC_SAR_Seq_1_CountsTo_mVolts
  78              	.LVL4:
 132:main.c        ****         
 133:main.c        ****         array2[count2] = mVolts2;
  79              		.loc 1 133 0
  80 003c 354A     		ldr	r2, .L15
  81 003e D36A     		ldr	r3, [r2, #44]
  82 0040 02EB8301 		add	r1, r2, r3, lsl #2
  83 0044 0863     		str	r0, [r1, #48]
 134:main.c        ****         count2++;
  84              		.loc 1 134 0
  85 0046 0133     		adds	r3, r3, #1
  86 0048 D362     		str	r3, [r2, #44]
  87              	.LBE3:
  88 004a 02E0     		b	.L5
  89              	.LVL5:
  90              	.L4:
 135:main.c        ****         }
 136:main.c        ****     else{
 137:main.c        ****         //Timer_2_Stop();
 138:main.c        ****         count2 = 0;
ARM GAS  C:\Users\fcho544\AppData\Local\Temp\ccoaNIzY.s 			page 5


  91              		.loc 1 138 0
  92 004c 0022     		movs	r2, #0
  93 004e 314B     		ldr	r3, .L15
  94 0050 DA62     		str	r2, [r3, #44]
  95              	.L5:
 139:main.c        ****     }
 140:main.c        ****     
 141:main.c        ****     if(count3 < 9){
  96              		.loc 1 141 0
  97 0052 304B     		ldr	r3, .L15
  98 0054 9B6D     		ldr	r3, [r3, #88]
  99 0056 082B     		cmp	r3, #8
 100 0058 0CDC     		bgt	.L6
 101              	.LBB4:
 142:main.c        ****         int  val3=ADC_SAR_Seq_1_GetResult16(2);
 102              		.loc 1 142 0
 103 005a 0220     		movs	r0, #2
 104 005c FFF7FEFF 		bl	ADC_SAR_Seq_1_GetResult16
 105              	.LVL6:
 143:main.c        ****         int mVolts3 = ADC_SAR_Seq_1_CountsTo_mVolts(val3);
 106              		.loc 1 143 0
 107 0060 FFF7FEFF 		bl	ADC_SAR_Seq_1_CountsTo_mVolts
 108              	.LVL7:
 144:main.c        ****         
 145:main.c        ****         array3[count3] = mVolts3;
 109              		.loc 1 145 0
 110 0064 2B4A     		ldr	r2, .L15
 111 0066 936D     		ldr	r3, [r2, #88]
 112 0068 02EB8301 		add	r1, r2, r3, lsl #2
 113 006c C865     		str	r0, [r1, #92]
 146:main.c        ****         count3++;
 114              		.loc 1 146 0
 115 006e 0133     		adds	r3, r3, #1
 116 0070 9365     		str	r3, [r2, #88]
 117              	.LBE4:
 118 0072 02E0     		b	.L7
 119              	.LVL8:
 120              	.L6:
 147:main.c        ****         }
 148:main.c        ****     else{
 149:main.c        ****         //Timer_2_Stop();
 150:main.c        ****         count3 = 0;
 121              		.loc 1 150 0
 122 0074 0022     		movs	r2, #0
 123 0076 274B     		ldr	r3, .L15
 124 0078 9A65     		str	r2, [r3, #88]
 125              	.L7:
 151:main.c        ****     }
 152:main.c        ****     if(count4 < 9){
 126              		.loc 1 152 0
 127 007a 264B     		ldr	r3, .L15
 128 007c D3F88430 		ldr	r3, [r3, #132]
 129 0080 082B     		cmp	r3, #8
 130 0082 0FDC     		bgt	.L8
 131              	.LBB5:
 153:main.c        ****         int  val4=ADC_SAR_Seq_1_GetResult16(3);
 132              		.loc 1 153 0
ARM GAS  C:\Users\fcho544\AppData\Local\Temp\ccoaNIzY.s 			page 6


 133 0084 0320     		movs	r0, #3
 134 0086 FFF7FEFF 		bl	ADC_SAR_Seq_1_GetResult16
 135              	.LVL9:
 154:main.c        ****         int mVolts4 = ADC_SAR_Seq_1_CountsTo_mVolts(val4);
 136              		.loc 1 154 0
 137 008a FFF7FEFF 		bl	ADC_SAR_Seq_1_CountsTo_mVolts
 138              	.LVL10:
 155:main.c        ****         
 156:main.c        ****         array4[count4] = mVolts4;
 139              		.loc 1 156 0
 140 008e 214A     		ldr	r2, .L15
 141 0090 D2F88430 		ldr	r3, [r2, #132]
 142 0094 02EB8301 		add	r1, r2, r3, lsl #2
 143 0098 C1F88800 		str	r0, [r1, #136]
 157:main.c        ****         count4++;
 144              		.loc 1 157 0
 145 009c 0133     		adds	r3, r3, #1
 146 009e C2F88430 		str	r3, [r2, #132]
 147              	.LBE5:
 148 00a2 03E0     		b	.L9
 149              	.LVL11:
 150              	.L8:
 158:main.c        ****         }
 159:main.c        ****     else{
 160:main.c        ****         //Timer_2_Stop();
 161:main.c        ****         count4 = 0;
 151              		.loc 1 161 0
 152 00a4 0022     		movs	r2, #0
 153 00a6 1B4B     		ldr	r3, .L15
 154 00a8 C3F88420 		str	r2, [r3, #132]
 155              	.L9:
 162:main.c        ****     }
 163:main.c        ****     
 164:main.c        ****     if(count5 < 9){
 156              		.loc 1 164 0
 157 00ac 194B     		ldr	r3, .L15
 158 00ae D3F8B030 		ldr	r3, [r3, #176]
 159 00b2 082B     		cmp	r3, #8
 160 00b4 0FDC     		bgt	.L10
 161              	.LBB6:
 165:main.c        ****         int  val5=ADC_SAR_Seq_1_GetResult16(4);
 162              		.loc 1 165 0
 163 00b6 0420     		movs	r0, #4
 164 00b8 FFF7FEFF 		bl	ADC_SAR_Seq_1_GetResult16
 165              	.LVL12:
 166:main.c        ****         int mVolts5 = ADC_SAR_Seq_1_CountsTo_mVolts(val5);
 166              		.loc 1 166 0
 167 00bc FFF7FEFF 		bl	ADC_SAR_Seq_1_CountsTo_mVolts
 168              	.LVL13:
 167:main.c        ****         
 168:main.c        ****         array5[count5] = mVolts5;
 169              		.loc 1 168 0
 170 00c0 144A     		ldr	r2, .L15
 171 00c2 D2F8B030 		ldr	r3, [r2, #176]
 172 00c6 02EB8301 		add	r1, r2, r3, lsl #2
 173 00ca C1F8B400 		str	r0, [r1, #180]
 169:main.c        ****         count5++;
ARM GAS  C:\Users\fcho544\AppData\Local\Temp\ccoaNIzY.s 			page 7


 174              		.loc 1 169 0
 175 00ce 0133     		adds	r3, r3, #1
 176 00d0 C2F8B030 		str	r3, [r2, #176]
 177              	.LBE6:
 178 00d4 03E0     		b	.L11
 179              	.LVL14:
 180              	.L10:
 170:main.c        ****         }
 171:main.c        ****     else{
 172:main.c        ****         //Timer_2_Stop();
 173:main.c        ****         count5 = 0;
 181              		.loc 1 173 0
 182 00d6 0022     		movs	r2, #0
 183 00d8 0E4B     		ldr	r3, .L15
 184 00da C3F8B020 		str	r2, [r3, #176]
 185              	.L11:
 174:main.c        ****     }
 175:main.c        ****     
 176:main.c        ****     if(count6 < 9){
 186              		.loc 1 176 0
 187 00de 0D4B     		ldr	r3, .L15
 188 00e0 D3F8DC30 		ldr	r3, [r3, #220]
 189 00e4 082B     		cmp	r3, #8
 190 00e6 0FDC     		bgt	.L12
 191              	.LBB7:
 177:main.c        ****         int  val6=ADC_SAR_Seq_1_GetResult16(5);
 192              		.loc 1 177 0
 193 00e8 0520     		movs	r0, #5
 194 00ea FFF7FEFF 		bl	ADC_SAR_Seq_1_GetResult16
 195              	.LVL15:
 178:main.c        ****         int mVolts6 = ADC_SAR_Seq_1_CountsTo_mVolts(val6);
 196              		.loc 1 178 0
 197 00ee FFF7FEFF 		bl	ADC_SAR_Seq_1_CountsTo_mVolts
 198              	.LVL16:
 179:main.c        ****         
 180:main.c        ****         array6[count6] = mVolts6;
 199              		.loc 1 180 0
 200 00f2 084A     		ldr	r2, .L15
 201 00f4 D2F8DC30 		ldr	r3, [r2, #220]
 202 00f8 02EB8301 		add	r1, r2, r3, lsl #2
 203 00fc C1F8E000 		str	r0, [r1, #224]
 181:main.c        ****         count6++;
 204              		.loc 1 181 0
 205 0100 0133     		adds	r3, r3, #1
 206 0102 C2F8DC30 		str	r3, [r2, #220]
 207              	.LBE7:
 208 0106 08BD     		pop	{r3, pc}
 209              	.LVL17:
 210              	.L12:
 182:main.c        ****         }
 183:main.c        ****     else{
 184:main.c        ****         //Timer_2_Stop();
 185:main.c        ****         count6 = 0;
 211              		.loc 1 185 0
 212 0108 0022     		movs	r2, #0
 213 010a 024B     		ldr	r3, .L15
 214 010c C3F8DC20 		str	r2, [r3, #220]
ARM GAS  C:\Users\fcho544\AppData\Local\Temp\ccoaNIzY.s 			page 8


 215 0110 08BD     		pop	{r3, pc}
 216              	.L16:
 217 0112 00BF     		.align	2
 218              	.L15:
 219 0114 00000000 		.word	.LANCHOR0
 220              		.cfi_endproc
 221              	.LFE67:
 222              		.size	eoc1, .-eoc1
 223              		.section	.text.findMaximum,"ax",%progbits
 224              		.align	2
 225              		.global	findMaximum
 226              		.thumb
 227              		.thumb_func
 228              		.type	findMaximum, %function
 229              	findMaximum:
 230              	.LFB64:
  71:main.c        **** int maximum = 0;
 231              		.loc 1 71 0
 232              		.cfi_startproc
 233              		@ args = 0, pretend = 0, frame = 0
 234              		@ frame_needed = 0, uses_anonymous_args = 0
 235              		@ link register save eliminated.
 236              	.LVL18:
 237              	.LBB8:
  73:main.c        ****         if (array[i]> maximum){
 238              		.loc 1 73 0
 239 0000 0023     		movs	r3, #0
 240              	.LBE8:
  72:main.c        ****     for(int i = 0; i < 10; i ++){
 241              		.loc 1 72 0
 242 0002 1946     		mov	r1, r3
 243              	.LBB9:
  73:main.c        ****         if (array[i]> maximum){
 244              		.loc 1 73 0
 245 0004 05E0     		b	.L18
 246              	.LVL19:
 247              	.L20:
  74:main.c        ****          maximum = array[i];
 248              		.loc 1 74 0
 249 0006 50F82320 		ldr	r2, [r0, r3, lsl #2]
 250 000a 9142     		cmp	r1, r2
 251 000c 00DA     		bge	.L19
  75:main.c        ****         }  
 252              		.loc 1 75 0
 253 000e 1146     		mov	r1, r2
 254              	.LVL20:
 255              	.L19:
  73:main.c        ****         if (array[i]> maximum){
 256              		.loc 1 73 0 discriminator 2
 257 0010 0133     		adds	r3, r3, #1
 258              	.LVL21:
 259              	.L18:
  73:main.c        ****         if (array[i]> maximum){
 260              		.loc 1 73 0 is_stmt 0 discriminator 1
 261 0012 092B     		cmp	r3, #9
 262 0014 F7DD     		ble	.L20
 263              	.LBE9:
ARM GAS  C:\Users\fcho544\AppData\Local\Temp\ccoaNIzY.s 			page 9


  79:main.c        **** 
 264              		.loc 1 79 0 is_stmt 1
 265 0016 0846     		mov	r0, r1
 266              	.LVL22:
 267 0018 7047     		bx	lr
 268              		.cfi_endproc
 269              	.LFE64:
 270              		.size	findMaximum, .-findMaximum
 271 001a 00BF     		.section	.text.findMinimum,"ax",%progbits
 272              		.align	2
 273              		.global	findMinimum
 274              		.thumb
 275              		.thumb_func
 276              		.type	findMinimum, %function
 277              	findMinimum:
 278              	.LFB65:
  81:main.c        **** int minimum = 10000;
 279              		.loc 1 81 0
 280              		.cfi_startproc
 281              		@ args = 0, pretend = 0, frame = 0
 282              		@ frame_needed = 0, uses_anonymous_args = 0
 283              		@ link register save eliminated.
 284              	.LVL23:
 285              	.LBB10:
  83:main.c        ****         if (array[i] < minimum){
 286              		.loc 1 83 0
 287 0000 0023     		movs	r3, #0
 288              	.LBE10:
  82:main.c        ****     for(int i = 0; i < 10; i ++){
 289              		.loc 1 82 0
 290 0002 42F21071 		movw	r1, #10000
 291              	.LBB11:
  83:main.c        ****         if (array[i] < minimum){
 292              		.loc 1 83 0
 293 0006 05E0     		b	.L23
 294              	.LVL24:
 295              	.L25:
  84:main.c        ****          minimum = array[i];
 296              		.loc 1 84 0
 297 0008 50F82320 		ldr	r2, [r0, r3, lsl #2]
 298 000c 9142     		cmp	r1, r2
 299 000e 00DD     		ble	.L24
  85:main.c        ****         }  
 300              		.loc 1 85 0
 301 0010 1146     		mov	r1, r2
 302              	.LVL25:
 303              	.L24:
  83:main.c        ****         if (array[i] < minimum){
 304              		.loc 1 83 0 discriminator 2
 305 0012 0133     		adds	r3, r3, #1
 306              	.LVL26:
 307              	.L23:
  83:main.c        ****         if (array[i] < minimum){
 308              		.loc 1 83 0 is_stmt 0 discriminator 1
 309 0014 092B     		cmp	r3, #9
 310 0016 F7DD     		ble	.L25
 311              	.LBE11:
ARM GAS  C:\Users\fcho544\AppData\Local\Temp\ccoaNIzY.s 			page 10


  89:main.c        **** 
 312              		.loc 1 89 0 is_stmt 1
 313 0018 0846     		mov	r0, r1
 314              	.LVL27:
 315 001a 7047     		bx	lr
 316              		.cfi_endproc
 317              	.LFE65:
 318              		.size	findMinimum, .-findMinimum
 319              		.section	.text.getSensor,"ax",%progbits
 320              		.align	2
 321              		.global	getSensor
 322              		.thumb
 323              		.thumb_func
 324              		.type	getSensor, %function
 325              	getSensor:
 326              	.LFB66:
  91:main.c        ****     // Using as a comparator / trigger
 327              		.loc 1 91 0
 328              		.cfi_startproc
 329              		@ args = 0, pretend = 0, frame = 0
 330              		@ frame_needed = 0, uses_anonymous_args = 0
 331              		@ link register save eliminated.
 332              	.LVL28:
  94:main.c        ****                         return 1;
 333              		.loc 1 94 0
 334 0000 C728     		cmp	r0, #199
 335 0002 01DC     		bgt	.L29
  95:main.c        ****                     }
 336              		.loc 1 95 0
 337 0004 0120     		movs	r0, #1
 338              	.LVL29:
 339 0006 7047     		bx	lr
 340              	.LVL30:
 341              	.L29:
  98:main.c        ****                     }
 342              		.loc 1 98 0
 343 0008 0020     		movs	r0, #0
 344              	.LVL31:
 104:main.c        **** 
 345              		.loc 1 104 0
 346 000a 7047     		bx	lr
 347              		.cfi_endproc
 348              	.LFE66:
 349              		.size	getSensor, .-getSensor
 350              		.section	.text.usbPutString,"ax",%progbits
 351              		.align	2
 352              		.global	usbPutString
 353              		.thumb
 354              		.thumb_func
 355              		.type	usbPutString, %function
 356              	usbPutString:
 357              	.LFB68:
 186:main.c        ****     }
 187:main.c        **** }
 188:main.c        **** 
 189:main.c        **** 
 190:main.c        **** 
ARM GAS  C:\Users\fcho544\AppData\Local\Temp\ccoaNIzY.s 			page 11


 191:main.c        **** 
 192:main.c        **** 
 193:main.c        **** void usbPutString(char *s)
 194:main.c        **** {
 358              		.loc 1 194 0
 359              		.cfi_startproc
 360              		@ args = 0, pretend = 0, frame = 0
 361              		@ frame_needed = 0, uses_anonymous_args = 0
 362              	.LVL32:
 363 0000 10B5     		push	{r4, lr}
 364              		.cfi_def_cfa_offset 8
 365              		.cfi_offset 4, -8
 366              		.cfi_offset 14, -4
 367 0002 0446     		mov	r4, r0
 368              	.LVL33:
 369              	.L31:
 195:main.c        **** // !! Assumes that *s is a string with allocated space >=64 chars     
 196:main.c        **** //  Since USB implementation retricts data packets to 64 chars, this function truncates the
 197:main.c        **** //  length to 62 char (63rd char is a '!')
 198:main.c        ****     
 199:main.c        ****     while (USBUART_1_CDCIsReady() == 0);
 370              		.loc 1 199 0 discriminator 1
 371 0004 FFF7FEFF 		bl	USBUART_1_CDCIsReady
 372              	.LVL34:
 373 0008 0028     		cmp	r0, #0
 374 000a FBD0     		beq	.L31
 200:main.c        ****     s[63]='\0';
 375              		.loc 1 200 0
 376 000c 0023     		movs	r3, #0
 377 000e 84F83F30 		strb	r3, [r4, #63]
 201:main.c        ****     s[62]='!';
 378              		.loc 1 201 0
 379 0012 2123     		movs	r3, #33
 380 0014 84F83E30 		strb	r3, [r4, #62]
 202:main.c        ****     USBUART_1_PutData((uint8*)s,strlen(s));
 381              		.loc 1 202 0
 382 0018 2046     		mov	r0, r4
 383 001a FFF7FEFF 		bl	strlen
 384              	.LVL35:
 385 001e 81B2     		uxth	r1, r0
 386 0020 2046     		mov	r0, r4
 387 0022 FFF7FEFF 		bl	USBUART_1_PutData
 388              	.LVL36:
 389 0026 10BD     		pop	{r4, pc}
 390              		.cfi_endproc
 391              	.LFE68:
 392              		.size	usbPutString, .-usbPutString
 393              		.section	.text.DoLeftTurn,"ax",%progbits
 394              		.align	2
 395              		.global	DoLeftTurn
 396              		.thumb
 397              		.thumb_func
 398              		.type	DoLeftTurn, %function
 399              	DoLeftTurn:
 400              	.LFB69:
 203:main.c        **** }
 204:main.c        **** 
ARM GAS  C:\Users\fcho544\AppData\Local\Temp\ccoaNIzY.s 			page 12


 205:main.c        **** 
 206:main.c        **** void DoLeftTurn(){
 401              		.loc 1 206 0
 402              		.cfi_startproc
 403              		@ args = 0, pretend = 0, frame = 0
 404              		@ frame_needed = 0, uses_anonymous_args = 0
 405 0000 08B5     		push	{r3, lr}
 406              		.cfi_def_cfa_offset 8
 407              		.cfi_offset 3, -8
 408              		.cfi_offset 14, -4
 207:main.c        ****     PWM_leftmotor_Start();
 409              		.loc 1 207 0
 410 0002 FFF7FEFF 		bl	PWM_leftmotor_Start
 411              	.LVL37:
 208:main.c        ****     PWM_rightmotor_Start();
 412              		.loc 1 208 0
 413 0006 FFF7FEFF 		bl	PWM_rightmotor_Start
 414              	.LVL38:
 209:main.c        ****     
 210:main.c        ****     //PWM_leftmotor_WriteCompare1(80);
 211:main.c        ****     PWM_leftmotor_WriteCompare1(180);
 415              		.loc 1 211 0
 416 000a B420     		movs	r0, #180
 417 000c FFF7FEFF 		bl	PWM_leftmotor_WriteCompare1
 418              	.LVL39:
 212:main.c        ****     PWM_leftmotor_WriteCompare2(0);
 419              		.loc 1 212 0
 420 0010 0020     		movs	r0, #0
 421 0012 FFF7FEFF 		bl	PWM_leftmotor_WriteCompare2
 422              	.LVL40:
 213:main.c        ****     
 214:main.c        ****     //PWM_rightmotor_WriteCompare1(60);
 215:main.c        ****     PWM_rightmotor_WriteCompare1(180);      // prev value = 120
 423              		.loc 1 215 0
 424 0016 B420     		movs	r0, #180
 425 0018 FFF7FEFF 		bl	PWM_rightmotor_WriteCompare1
 426              	.LVL41:
 216:main.c        ****     PWM_rightmotor_WriteCompare2(0);
 427              		.loc 1 216 0
 428 001c 0020     		movs	r0, #0
 429 001e FFF7FEFF 		bl	PWM_rightmotor_WriteCompare2
 430              	.LVL42:
 431 0022 08BD     		pop	{r3, pc}
 432              		.cfi_endproc
 433              	.LFE69:
 434              		.size	DoLeftTurn, .-DoLeftTurn
 435              		.section	.text.DoRightTurn,"ax",%progbits
 436              		.align	2
 437              		.global	DoRightTurn
 438              		.thumb
 439              		.thumb_func
 440              		.type	DoRightTurn, %function
 441              	DoRightTurn:
 442              	.LFB70:
 217:main.c        **** }
 218:main.c        **** 
 219:main.c        **** //void DoRightTurn(int rightTurn){ // COULD MODIFY TO TAKE INPUT PARAMETERS
ARM GAS  C:\Users\fcho544\AppData\Local\Temp\ccoaNIzY.s 			page 13


 220:main.c        ****   void DoRightTurn() {
 443              		.loc 1 220 0
 444              		.cfi_startproc
 445              		@ args = 0, pretend = 0, frame = 0
 446              		@ frame_needed = 0, uses_anonymous_args = 0
 447 0000 08B5     		push	{r3, lr}
 448              		.cfi_def_cfa_offset 8
 449              		.cfi_offset 3, -8
 450              		.cfi_offset 14, -4
 221:main.c        ****     PWM_leftmotor_Start();
 451              		.loc 1 221 0
 452 0002 FFF7FEFF 		bl	PWM_leftmotor_Start
 453              	.LVL43:
 222:main.c        ****     PWM_rightmotor_Start();
 454              		.loc 1 222 0
 455 0006 FFF7FEFF 		bl	PWM_rightmotor_Start
 456              	.LVL44:
 223:main.c        ****     
 224:main.c        ****         // initiate right turn
 225:main.c        ****         // right turn; left motor forward
 226:main.c        ****         PWM_leftmotor_WriteCompare1(0);
 457              		.loc 1 226 0
 458 000a 0020     		movs	r0, #0
 459 000c FFF7FEFF 		bl	PWM_leftmotor_WriteCompare1
 460              	.LVL45:
 227:main.c        ****         //PWM_leftmotor_WriteCompare2(60);
 228:main.c        ****         PWM_leftmotor_WriteCompare2(200);       // going forward -> 140 works 
 461              		.loc 1 228 0
 462 0010 C820     		movs	r0, #200
 463 0012 FFF7FEFF 		bl	PWM_leftmotor_WriteCompare2
 464              	.LVL46:
 229:main.c        ****         
 230:main.c        ****         // right turn; right motor reverse
 231:main.c        ****         PWM_rightmotor_WriteCompare1(0);
 465              		.loc 1 231 0
 466 0016 0020     		movs	r0, #0
 467 0018 FFF7FEFF 		bl	PWM_rightmotor_WriteCompare1
 468              	.LVL47:
 232:main.c        ****         PWM_rightmotor_WriteCompare2(200);    // reverse
 469              		.loc 1 232 0
 470 001c C820     		movs	r0, #200
 471 001e FFF7FEFF 		bl	PWM_rightmotor_WriteCompare2
 472              	.LVL48:
 473 0022 08BD     		pop	{r3, pc}
 474              		.cfi_endproc
 475              	.LFE70:
 476              		.size	DoRightTurn, .-DoRightTurn
 477              		.section	.text.GoStraight,"ax",%progbits
 478              		.align	2
 479              		.global	GoStraight
 480              		.thumb
 481              		.thumb_func
 482              		.type	GoStraight, %function
 483              	GoStraight:
 484              	.LFB71:
 233:main.c        ****     
 234:main.c        ****     
ARM GAS  C:\Users\fcho544\AppData\Local\Temp\ccoaNIzY.s 			page 14


 235:main.c        ****     /*if (rightTurn == 1) {
 236:main.c        ****         // initiate right turn
 237:main.c        ****         // right turn; left motor forward
 238:main.c        ****         PWM_leftmotor_WriteCompare1(0);
 239:main.c        ****         //PWM_leftmotor_WriteCompare2(60);
 240:main.c        ****         PWM_leftmotor_WriteCompare2(70);
 241:main.c        ****         
 242:main.c        ****         // right turn; right motor reverse
 243:main.c        ****         PWM_rightmotor_WriteCompare1(0);
 244:main.c        ****         PWM_rightmotor_WriteCompare2(100);
 245:main.c        ****     }*/
 246:main.c        **** }
 247:main.c        **** 
 248:main.c        **** void GoStraight(){
 485              		.loc 1 248 0
 486              		.cfi_startproc
 487              		@ args = 0, pretend = 0, frame = 0
 488              		@ frame_needed = 0, uses_anonymous_args = 0
 489 0000 08B5     		push	{r3, lr}
 490              		.cfi_def_cfa_offset 8
 491              		.cfi_offset 3, -8
 492              		.cfi_offset 14, -4
 249:main.c        ****     PWM_leftmotor_Start();
 493              		.loc 1 249 0
 494 0002 FFF7FEFF 		bl	PWM_leftmotor_Start
 495              	.LVL49:
 250:main.c        ****     PWM_rightmotor_Start();
 496              		.loc 1 250 0
 497 0006 FFF7FEFF 		bl	PWM_rightmotor_Start
 498              	.LVL50:
 251:main.c        ****     PWM_leftmotor_WriteCompare1(0);
 499              		.loc 1 251 0
 500 000a 0020     		movs	r0, #0
 501 000c FFF7FEFF 		bl	PWM_leftmotor_WriteCompare1
 502              	.LVL51:
 252:main.c        ****     PWM_leftmotor_WriteCompare2(97);
 503              		.loc 1 252 0
 504 0010 6120     		movs	r0, #97
 505 0012 FFF7FEFF 		bl	PWM_leftmotor_WriteCompare2
 506              	.LVL52:
 253:main.c        **** 
 254:main.c        ****     PWM_rightmotor_WriteCompare1(90);
 507              		.loc 1 254 0
 508 0016 5A20     		movs	r0, #90
 509 0018 FFF7FEFF 		bl	PWM_rightmotor_WriteCompare1
 510              	.LVL53:
 255:main.c        ****     PWM_rightmotor_WriteCompare2(0);
 511              		.loc 1 255 0
 512 001c 0020     		movs	r0, #0
 513 001e FFF7FEFF 		bl	PWM_rightmotor_WriteCompare2
 514              	.LVL54:
 515 0022 08BD     		pop	{r3, pc}
 516              		.cfi_endproc
 517              	.LFE71:
 518              		.size	GoStraight, .-GoStraight
 519              		.section	.text.Stop,"ax",%progbits
 520              		.align	2
ARM GAS  C:\Users\fcho544\AppData\Local\Temp\ccoaNIzY.s 			page 15


 521              		.global	Stop
 522              		.thumb
 523              		.thumb_func
 524              		.type	Stop, %function
 525              	Stop:
 526              	.LFB72:
 256:main.c        **** }
 257:main.c        **** void Stop(){
 527              		.loc 1 257 0
 528              		.cfi_startproc
 529              		@ args = 0, pretend = 0, frame = 0
 530              		@ frame_needed = 0, uses_anonymous_args = 0
 531 0000 08B5     		push	{r3, lr}
 532              		.cfi_def_cfa_offset 8
 533              		.cfi_offset 3, -8
 534              		.cfi_offset 14, -4
 258:main.c        ****     PWM_leftmotor_WriteCompare1(140);
 535              		.loc 1 258 0
 536 0002 8C20     		movs	r0, #140
 537 0004 FFF7FEFF 		bl	PWM_leftmotor_WriteCompare1
 538              	.LVL55:
 259:main.c        ****     PWM_leftmotor_WriteCompare2(140);
 539              		.loc 1 259 0
 540 0008 8C20     		movs	r0, #140
 541 000a FFF7FEFF 		bl	PWM_leftmotor_WriteCompare2
 542              	.LVL56:
 260:main.c        **** 
 261:main.c        ****     PWM_rightmotor_WriteCompare1(140);
 543              		.loc 1 261 0
 544 000e 8C20     		movs	r0, #140
 545 0010 FFF7FEFF 		bl	PWM_rightmotor_WriteCompare1
 546              	.LVL57:
 262:main.c        ****     PWM_rightmotor_WriteCompare2(140);
 547              		.loc 1 262 0
 548 0014 8C20     		movs	r0, #140
 549 0016 FFF7FEFF 		bl	PWM_rightmotor_WriteCompare2
 550              	.LVL58:
 551 001a 08BD     		pop	{r3, pc}
 552              		.cfi_endproc
 553              	.LFE72:
 554              		.size	Stop, .-Stop
 555              		.section	.text.ArrangeToLeft,"ax",%progbits
 556              		.align	2
 557              		.global	ArrangeToLeft
 558              		.thumb
 559              		.thumb_func
 560              		.type	ArrangeToLeft, %function
 561              	ArrangeToLeft:
 562              	.LFB73:
 263:main.c        **** }
 264:main.c        **** 
 265:main.c        **** void ArrangeToLeft(){
 563              		.loc 1 265 0
 564              		.cfi_startproc
 565              		@ args = 0, pretend = 0, frame = 0
 566              		@ frame_needed = 0, uses_anonymous_args = 0
 567 0000 10B5     		push	{r4, lr}
ARM GAS  C:\Users\fcho544\AppData\Local\Temp\ccoaNIzY.s 			page 16


 568              		.cfi_def_cfa_offset 8
 569              		.cfi_offset 4, -8
 570              		.cfi_offset 14, -4
 266:main.c        ****     PWM_leftmotor_Start();
 571              		.loc 1 266 0
 572 0002 FFF7FEFF 		bl	PWM_leftmotor_Start
 573              	.LVL59:
 267:main.c        ****     PWM_rightmotor_Start();
 574              		.loc 1 267 0
 575 0006 FFF7FEFF 		bl	PWM_rightmotor_Start
 576              	.LVL60:
 268:main.c        ****     PWM_leftmotor_WriteCompare1(0);
 577              		.loc 1 268 0
 578 000a 0020     		movs	r0, #0
 579 000c FFF7FEFF 		bl	PWM_leftmotor_WriteCompare1
 580              	.LVL61:
 269:main.c        ****     
 270:main.c        ****     leftDuty = leftDuty+ offset;
 581              		.loc 1 270 0
 582 0010 0A4C     		ldr	r4, .L43
 583 0012 2068     		ldr	r0, [r4]
 584 0014 6368     		ldr	r3, [r4, #4]
 585 0016 1844     		add	r0, r0, r3
 586 0018 2060     		str	r0, [r4]
 271:main.c        ****     PWM_leftmotor_WriteCompare2(leftDuty);
 587              		.loc 1 271 0
 588 001a C0B2     		uxtb	r0, r0
 589 001c FFF7FEFF 		bl	PWM_leftmotor_WriteCompare2
 590              	.LVL62:
 272:main.c        ****     
 273:main.c        ****     
 274:main.c        ****     PWM_rightmotor_WriteCompare1(startDuty);
 591              		.loc 1 274 0
 592 0020 207A     		ldrb	r0, [r4, #8]	@ zero_extendqisi2
 593 0022 FFF7FEFF 		bl	PWM_rightmotor_WriteCompare1
 594              	.LVL63:
 275:main.c        ****     
 276:main.c        ****     rightDuty = rightDuty+ offset;
 595              		.loc 1 276 0
 596 0026 064A     		ldr	r2, .L43+4
 597 0028 D2F80801 		ldr	r0, [r2, #264]
 598 002c 6368     		ldr	r3, [r4, #4]
 599 002e 1844     		add	r0, r0, r3
 600 0030 C2F80801 		str	r0, [r2, #264]
 277:main.c        ****     PWM_rightmotor_WriteCompare2(rightDuty);
 601              		.loc 1 277 0
 602 0034 C0B2     		uxtb	r0, r0
 603 0036 FFF7FEFF 		bl	PWM_rightmotor_WriteCompare2
 604              	.LVL64:
 605 003a 10BD     		pop	{r4, pc}
 606              	.L44:
 607              		.align	2
 608              	.L43:
 609 003c 00000000 		.word	.LANCHOR1
 610 0040 00000000 		.word	.LANCHOR0
 611              		.cfi_endproc
 612              	.LFE73:
ARM GAS  C:\Users\fcho544\AppData\Local\Temp\ccoaNIzY.s 			page 17


 613              		.size	ArrangeToLeft, .-ArrangeToLeft
 614              		.section	.text.ArrangeToRight,"ax",%progbits
 615              		.align	2
 616              		.global	ArrangeToRight
 617              		.thumb
 618              		.thumb_func
 619              		.type	ArrangeToRight, %function
 620              	ArrangeToRight:
 621              	.LFB74:
 278:main.c        **** }
 279:main.c        **** 
 280:main.c        **** void ArrangeToRight(){
 622              		.loc 1 280 0
 623              		.cfi_startproc
 624              		@ args = 0, pretend = 0, frame = 0
 625              		@ frame_needed = 0, uses_anonymous_args = 0
 626 0000 10B5     		push	{r4, lr}
 627              		.cfi_def_cfa_offset 8
 628              		.cfi_offset 4, -8
 629              		.cfi_offset 14, -4
 281:main.c        ****     PWM_leftmotor_Start();
 630              		.loc 1 281 0
 631 0002 FFF7FEFF 		bl	PWM_leftmotor_Start
 632              	.LVL65:
 282:main.c        ****     PWM_rightmotor_Start();
 633              		.loc 1 282 0
 634 0006 FFF7FEFF 		bl	PWM_rightmotor_Start
 635              	.LVL66:
 283:main.c        ****     PWM_leftmotor_WriteCompare1(0+offset);
 636              		.loc 1 283 0
 637 000a 084C     		ldr	r4, .L47
 638 000c 2079     		ldrb	r0, [r4, #4]	@ zero_extendqisi2
 639 000e FFF7FEFF 		bl	PWM_leftmotor_WriteCompare1
 640              	.LVL67:
 284:main.c        ****     PWM_leftmotor_WriteCompare2(startDuty);
 641              		.loc 1 284 0
 642 0012 207A     		ldrb	r0, [r4, #8]	@ zero_extendqisi2
 643 0014 FFF7FEFF 		bl	PWM_leftmotor_WriteCompare2
 644              	.LVL68:
 285:main.c        **** 
 286:main.c        ****     PWM_rightmotor_WriteCompare1(startDuty+offset);
 645              		.loc 1 286 0
 646 0018 A068     		ldr	r0, [r4, #8]
 647 001a 6368     		ldr	r3, [r4, #4]
 648 001c 1844     		add	r0, r0, r3
 649 001e C0B2     		uxtb	r0, r0
 650 0020 FFF7FEFF 		bl	PWM_rightmotor_WriteCompare1
 651              	.LVL69:
 287:main.c        ****     PWM_rightmotor_WriteCompare2(0);
 652              		.loc 1 287 0
 653 0024 0020     		movs	r0, #0
 654 0026 FFF7FEFF 		bl	PWM_rightmotor_WriteCompare2
 655              	.LVL70:
 656 002a 10BD     		pop	{r4, pc}
 657              	.L48:
 658              		.align	2
 659              	.L47:
ARM GAS  C:\Users\fcho544\AppData\Local\Temp\ccoaNIzY.s 			page 18


 660 002c 00000000 		.word	.LANCHOR1
 661              		.cfi_endproc
 662              	.LFE74:
 663              		.size	ArrangeToRight, .-ArrangeToRight
 664              		.section	.text.updateMotorSpeed_Right,"ax",%progbits
 665              		.align	2
 666              		.global	updateMotorSpeed_Right
 667              		.thumb
 668              		.thumb_func
 669              		.type	updateMotorSpeed_Right, %function
 670              	updateMotorSpeed_Right:
 671              	.LFB75:
 288:main.c        **** }
 289:main.c        **** 
 290:main.c        **** void updateMotorSpeed_Right(int speed) {    
 672              		.loc 1 290 0
 673              		.cfi_startproc
 674              		@ args = 0, pretend = 0, frame = 0
 675              		@ frame_needed = 0, uses_anonymous_args = 0
 676              	.LVL71:
 677 0000 10B5     		push	{r4, lr}
 678              		.cfi_def_cfa_offset 8
 679              		.cfi_offset 4, -8
 680              		.cfi_offset 14, -4
 291:main.c        ****     PWM_rightmotor_WriteCompare1(255 - speed);
 681              		.loc 1 291 0
 682 0002 C4B2     		uxtb	r4, r0
 683 0004 E043     		mvns	r0, r4
 684              	.LVL72:
 685 0006 C0B2     		uxtb	r0, r0
 686 0008 FFF7FEFF 		bl	PWM_rightmotor_WriteCompare1
 687              	.LVL73:
 292:main.c        ****     PWM_rightmotor_WriteCompare2(255-(255-speed));
 688              		.loc 1 292 0
 689 000c 2046     		mov	r0, r4
 690 000e FFF7FEFF 		bl	PWM_rightmotor_WriteCompare2
 691              	.LVL74:
 692 0012 10BD     		pop	{r4, pc}
 693              		.cfi_endproc
 694              	.LFE75:
 695              		.size	updateMotorSpeed_Right, .-updateMotorSpeed_Right
 696              		.section	.text.updateMotorSpeed_Left,"ax",%progbits
 697              		.align	2
 698              		.global	updateMotorSpeed_Left
 699              		.thumb
 700              		.thumb_func
 701              		.type	updateMotorSpeed_Left, %function
 702              	updateMotorSpeed_Left:
 703              	.LFB76:
 293:main.c        **** }
 294:main.c        **** 
 295:main.c        **** void updateMotorSpeed_Left(int speed) {    
 704              		.loc 1 295 0
 705              		.cfi_startproc
 706              		@ args = 0, pretend = 0, frame = 0
 707              		@ frame_needed = 0, uses_anonymous_args = 0
 708              	.LVL75:
ARM GAS  C:\Users\fcho544\AppData\Local\Temp\ccoaNIzY.s 			page 19


 709 0000 10B5     		push	{r4, lr}
 710              		.cfi_def_cfa_offset 8
 711              		.cfi_offset 4, -8
 712              		.cfi_offset 14, -4
 296:main.c        ****     PWM_leftmotor_WriteCompare2(255 - speed);
 713              		.loc 1 296 0
 714 0002 C4B2     		uxtb	r4, r0
 715 0004 E043     		mvns	r0, r4
 716              	.LVL76:
 717 0006 C0B2     		uxtb	r0, r0
 718 0008 FFF7FEFF 		bl	PWM_leftmotor_WriteCompare2
 719              	.LVL77:
 297:main.c        ****     PWM_leftmotor_WriteCompare1(255-(255-speed));
 720              		.loc 1 297 0
 721 000c 2046     		mov	r0, r4
 722 000e FFF7FEFF 		bl	PWM_leftmotor_WriteCompare1
 723              	.LVL78:
 724 0012 10BD     		pop	{r4, pc}
 725              		.cfi_endproc
 726              	.LFE76:
 727              		.size	updateMotorSpeed_Left, .-updateMotorSpeed_Left
 728              		.section	.text.updateMotorSpeed,"ax",%progbits
 729              		.align	2
 730              		.global	updateMotorSpeed
 731              		.thumb
 732              		.thumb_func
 733              		.type	updateMotorSpeed, %function
 734              	updateMotorSpeed:
 735              	.LFB77:
 298:main.c        **** }
 299:main.c        **** 
 300:main.c        **** void updateMotorSpeed(int speed) {
 736              		.loc 1 300 0
 737              		.cfi_startproc
 738              		@ args = 0, pretend = 0, frame = 0
 739              		@ frame_needed = 0, uses_anonymous_args = 0
 740              	.LVL79:
 741 0000 10B5     		push	{r4, lr}
 742              		.cfi_def_cfa_offset 8
 743              		.cfi_offset 4, -8
 744              		.cfi_offset 14, -4
 745 0002 0446     		mov	r4, r0
 301:main.c        ****     updateMotorSpeed_Right(speed);
 746              		.loc 1 301 0
 747 0004 FFF7FEFF 		bl	updateMotorSpeed_Right
 748              	.LVL80:
 302:main.c        ****     updateMotorSpeed_Left(speed);   
 749              		.loc 1 302 0
 750 0008 2046     		mov	r0, r4
 751 000a FFF7FEFF 		bl	updateMotorSpeed_Left
 752              	.LVL81:
 753 000e 10BD     		pop	{r4, pc}
 754              		.cfi_endproc
 755              	.LFE77:
 756              		.size	updateMotorSpeed, .-updateMotorSpeed
 757              		.section	.text.main,"ax",%progbits
 758              		.align	2
ARM GAS  C:\Users\fcho544\AppData\Local\Temp\ccoaNIzY.s 			page 20


 759              		.global	main
 760              		.thumb
 761              		.thumb_func
 762              		.type	main, %function
 763              	main:
 764              	.LFB78:
 303:main.c        **** }
 304:main.c        **** 
 305:main.c        **** int main(void) 
 306:main.c        **** {
 765              		.loc 1 306 0
 766              		.cfi_startproc
 767              		@ args = 0, pretend = 0, frame = 0
 768              		@ frame_needed = 0, uses_anonymous_args = 0
 769 0000 2DE9F047 		push	{r4, r5, r6, r7, r8, r9, r10, lr}
 770              		.cfi_def_cfa_offset 32
 771              		.cfi_offset 4, -32
 772              		.cfi_offset 5, -28
 773              		.cfi_offset 6, -24
 774              		.cfi_offset 7, -20
 775              		.cfi_offset 8, -16
 776              		.cfi_offset 9, -12
 777              		.cfi_offset 10, -8
 778              		.cfi_offset 14, -4
 307:main.c        ****     isr_EOC_3_StartEx(eoc1);
 779              		.loc 1 307 0
 780 0004 6B48     		ldr	r0, .L103
 781 0006 FFF7FEFF 		bl	isr_EOC_3_StartEx
 782              	.LVL82:
 308:main.c        **** 
 309:main.c        ****   
 310:main.c        **** 
 311:main.c        ****     CyGlobalIntEnable; /* Enable global interrupts. */
 783              		.loc 1 311 0
 784              		.syntax unified
 785              	@ 311 "main.c" 1
 786 000a 62B6     		CPSIE   i
 787              	@ 0 "" 2
 312:main.c        **** 
 313:main.c        ****     USBUART_1_Start(0,USBUART_1_5V_OPERATION);
 788              		.loc 1 313 0
 789              		.thumb
 790              		.syntax unified
 791 000c 0121     		movs	r1, #1
 792 000e 0020     		movs	r0, #0
 793 0010 FFF7FEFF 		bl	USBUART_1_Start
 794              	.LVL83:
 314:main.c        **** 
 315:main.c        ****     
 316:main.c        ****     
 317:main.c        ****     
 318:main.c        ****   
 319:main.c        ****     ADC_SAR_Seq_1_Start();
 795              		.loc 1 319 0
 796 0014 FFF7FEFF 		bl	ADC_SAR_Seq_1_Start
 797              	.LVL84:
 320:main.c        ****     
ARM GAS  C:\Users\fcho544\AppData\Local\Temp\ccoaNIzY.s 			page 21


 321:main.c        ****     Timer_2_Start();
 798              		.loc 1 321 0
 799 0018 FFF7FEFF 		bl	Timer_2_Start
 800              	.LVL85:
 801              	.L56:
 802              	.LBB12:
 322:main.c        ****     
 323:main.c        ****     /* Place your initialization/startup code here (e.g. MyInst_Start()) */
 324:main.c        ****     
 325:main.c        ****     
 326:main.c        ****     //enum States FSM = right_turn;
 327:main.c        ****     //PWM_rightmotor_Start();
 328:main.c        ****     //PWM_leftmotor_Start();
 329:main.c        ****     
 330:main.c        ****     
 331:main.c        ****     enum States FSM;
 332:main.c        ****     
 333:main.c        ****     //updateMotorSpeed(50);
 334:main.c        ****     
 335:main.c        ****     
 336:main.c        ****     //CyDelay(1000);
 337:main.c        **** 
 338:main.c        ****     for(;;)
 339:main.c        ****     {
 340:main.c        ****         
 341:main.c        ****         /* Place your application code here. */
 342:main.c        ****         /*
 343:main.c        ****         int result=  522;
 344:main.c        ****         char send[100];
 345:main.c        ****         sprintf(send,"%d\r\n",result);
 346:main.c        ****         usbPutString(send);
 347:main.c        ****         CyDelay(100);
 348:main.c        ****         */
 349:main.c        ****         
 350:main.c        ****         /*
 351:main.c        ****         if(flag == 1){
 352:main.c        ****             flag = 0;`
 353:main.c        ****             char send[100];
 354:main.c        ****             sprintf(send,"%d\r\n",speed);
 355:main.c        ****             usbPutString(send);
 356:main.c        ****         }
 357:main.c        ****         */
 358:main.c        **** //        CyDelay(5000);
 359:main.c        ****         // Update FSM state based on LEDS
 360:main.c        ****         
 361:main.c        ****         
 362:main.c        ****         
 363:main.c        **** //        //if front, left, right, back (1,2,3,6) sensors 1, go straight 
 364:main.c        **** //        if ((front < LIGHT_CMP_VALUE) && (left < LIGHT_CMP_VALUE) && (right < LIGHT_CMP_VALUE) &&
 365:main.c        **** //            FSM = straight;
 366:main.c        **** //        }
 367:main.c        **** //            // If front =0, left,right,back (2,3,
 368:main.c        **** //        if ((front > LIGHT_CMP_VALUE) && (far_left < LIGHT_CMP_VALUE)) {
 369:main.c        **** //            FSM = left_turn;
 370:main.c        **** //        }
 371:main.c        **** //        
 372:main.c        **** //        if ((far_right < LIGHT_CMP_VALUE) && (front > LIGHT_CMP_VALUE)) {
ARM GAS  C:\Users\fcho544\AppData\Local\Temp\ccoaNIzY.s 			page 22


 373:main.c        **** //            FSM = right_turn;
 374:main.c        **** //        }
 375:main.c        **** //        
 376:main.c        **** //        if ((right < LIGHT_CMP_VALUE) && (left > LIGHT_CMP_VALUE) && (back < LIGHT_CMP_VALUE)){
 377:main.c        **** //            FSM = arrange_toleft; 
 378:main.c        **** //        }
 379:main.c        **** //        
 380:main.c        **** //        if((right > LIGHT_CMP_VALUE) && (left < LIGHT_CMP_VALUE) &&  (back < LIGHT_CMP_VALUE)){
 381:main.c        **** //            FSM = arrange_toRight;
 382:main.c        **** //        }
 383:main.c        **** 
 384:main.c        ****         int front = findMaximum(array);
 803              		.loc 1 384 0
 804 001c 664C     		ldr	r4, .L103+4
 805 001e 201D     		adds	r0, r4, #4
 806 0020 FFF7FEFF 		bl	findMaximum
 807              	.LVL86:
 808 0024 8246     		mov	r10, r0
 809              	.LVL87:
 385:main.c        ****         int left = findMaximum(array2);
 810              		.loc 1 385 0
 811 0026 04F13000 		add	r0, r4, #48
 812              	.LVL88:
 813 002a FFF7FEFF 		bl	findMaximum
 814              	.LVL89:
 815 002e 0746     		mov	r7, r0
 816              	.LVL90:
 386:main.c        ****         int right = findMaximum(array3);
 817              		.loc 1 386 0
 818 0030 04F15C00 		add	r0, r4, #92
 819              	.LVL91:
 820 0034 FFF7FEFF 		bl	findMaximum
 821              	.LVL92:
 822 0038 8146     		mov	r9, r0
 823              	.LVL93:
 387:main.c        ****         int far_left = findMaximum(array4);
 824              		.loc 1 387 0
 825 003a 04F18800 		add	r0, r4, #136
 826              	.LVL94:
 827 003e FFF7FEFF 		bl	findMaximum
 828              	.LVL95:
 829 0042 0646     		mov	r6, r0
 830              	.LVL96:
 388:main.c        ****         int far_right = findMaximum(array5);
 831              		.loc 1 388 0
 832 0044 04F1B400 		add	r0, r4, #180
 833              	.LVL97:
 834 0048 FFF7FEFF 		bl	findMaximum
 835              	.LVL98:
 836 004c 8046     		mov	r8, r0
 837              	.LVL99:
 389:main.c        ****         int back = findMaximum(array6);
 838              		.loc 1 389 0
 839 004e 04F1E000 		add	r0, r4, #224
 840              	.LVL100:
 841 0052 FFF7FEFF 		bl	findMaximum
 842              	.LVL101:
ARM GAS  C:\Users\fcho544\AppData\Local\Temp\ccoaNIzY.s 			page 23


 390:main.c        ****         
 391:main.c        ****         int cmp_val = 500;
 392:main.c        ****         
 393:main.c        **** //        char temp[100];
 394:main.c        **** //    
 395:main.c        **** //        sprintf(temp, "Array %d = %d \n", 1, front);
 396:main.c        **** //        usbPutString(temp);
 397:main.c        **** //        
 398:main.c        **** //        sprintf(temp, "Array %d = %d \n", 2, left);
 399:main.c        **** //        usbPutString(temp);
 400:main.c        **** //
 401:main.c        **** //        
 402:main.c        **** //        sprintf(temp, "Array %d = %d \n", 3, right);
 403:main.c        **** //        usbPutString(temp);
 404:main.c        **** //
 405:main.c        **** //        
 406:main.c        **** //        sprintf(temp, "Array %d = %d \n", 4, far_left);
 407:main.c        **** //        usbPutString(temp);
 408:main.c        **** //
 409:main.c        **** //        
 410:main.c        **** //        sprintf(temp, "Array %d = %d \n", 5, far_right);
 411:main.c        **** //        usbPutString(temp);
 412:main.c        **** //
 413:main.c        **** //        
 414:main.c        **** //        sprintf(temp, "Array %d = %d \n", 6, back);
 415:main.c        **** //        usbPutString(temp);
 416:main.c        ****         
 417:main.c        **** 
 418:main.c        ****         /**
 419:main.c        ****         *   x < cmp_val means that sensor x is INSIDE the projector path
 420:main.c        ****         *
 421:main.c        ****         *   x > cmp_val means that sensor x is OUTSIDE the projector path
 422:main.c        ****         */
 423:main.c        **** 
 424:main.c        ****         
 425:main.c        ****         //if( (far_left < cmp_val) && (left<cmp_val) && (right<cmp_val)) { // GO LEFT        PRIORI
 426:main.c        ****         //if( (far_left < cmp_val) && (right < cmp_val)   ) { // GO LEFT
 427:main.c        ****         if (far_left < cmp_val) {
 843              		.loc 1 427 0
 844 0056 B6F5FA7F 		cmp	r6, #500
 845 005a 04DA     		bge	.L58
 428:main.c        ****             leftTurn = 1;
 846              		.loc 1 428 0
 847 005c 0122     		movs	r2, #1
 848 005e C4F80C21 		str	r2, [r4, #268]
 849              	.LVL102:
 429:main.c        ****             FSM = left_turn;
 850              		.loc 1 429 0
 851 0062 0025     		movs	r5, #0
 852 0064 7BE0     		b	.L59
 853              	.LVL103:
 854              	.L58:
 430:main.c        ****         
 431:main.c        ****         
 432:main.c        ****         //} else if( (far_right < cmp_val) ) {// GO RIGHT        PRIORITY 1
 433:main.c        ****         //} else if( (far_right < cmp_val) && (left<cmp_val) && (right<cmp_val) && (back<cmp_val)) 
 434:main.c        ****         //} else if( (far_right < cmp_val) && (back < cmp_val)) {
ARM GAS  C:\Users\fcho544\AppData\Local\Temp\ccoaNIzY.s 			page 24


 435:main.c        ****           } else if (far_right < cmp_val) {  
 855              		.loc 1 435 0
 856 0066 B8F5FA7F 		cmp	r8, #500
 857 006a 04DA     		bge	.L60
 436:main.c        ****             rightTurn = 1;
 858              		.loc 1 436 0
 859 006c 0125     		movs	r5, #1
 860              	.LVL104:
 861 006e 524B     		ldr	r3, .L103+4
 862 0070 C3F81051 		str	r5, [r3, #272]
 863              	.LVL105:
 864 0074 73E0     		b	.L59
 865              	.LVL106:
 866              	.L60:
 437:main.c        ****             FSM = right_turn;
 438:main.c        ****         
 439:main.c        ****         //} else if( (front < cmp_val ) || (left < cmp_val) || ( right < cmp_val) || (back < cmp_va
 440:main.c        ****         //    FSM = straight;
 441:main.c        ****             
 442:main.c        **** 
 443:main.c        ****             
 444:main.c        ****            // straight ony - 2, 3, 6 are in path
 445:main.c        ****         } else if ((left < cmp_val) && (right < cmp_val) && (back<cmp_val)   ) {
 867              		.loc 1 445 0
 868 0076 B7F5FA7F 		cmp	r7, #500
 869 007a 05DA     		bge	.L61
 870              		.loc 1 445 0 is_stmt 0 discriminator 1
 871 007c B9F5FA7F 		cmp	r9, #500
 872 0080 02DA     		bge	.L61
 873              		.loc 1 445 0 discriminator 2
 874 0082 B0F5FA7F 		cmp	r0, #500
 875 0086 51DB     		blt	.L81
 876              	.L61:
 446:main.c        ****             //rightTurn = 0;
 447:main.c        ****             //leftTurn = 0;
 448:main.c        ****             FSM = straight; // go straight only
 449:main.c        ****         
 450:main.c        ****             
 451:main.c        ****             
 452:main.c        ****             
 453:main.c        ****         // straight - left sensor is out of path
 454:main.c        ****         //}   else if (   ((left > cmp_val) && (right < cmp_val) && (back<cmp_val)) || ((left > cmp
 455:main.c        ****         }   else if (   ((left > cmp_val) && (right < cmp_val) && (back<cmp_val)) || ((left > cmp_v
 877              		.loc 1 455 0 is_stmt 1
 878 0088 B7F5FA7F 		cmp	r7, #500
 879 008c 05DD     		ble	.L62
 880              		.loc 1 455 0 is_stmt 0 discriminator 1
 881 008e B9F5FA7F 		cmp	r9, #500
 882 0092 02DA     		bge	.L62
 883              		.loc 1 455 0 discriminator 3
 884 0094 B0F5FA7F 		cmp	r0, #500
 885 0098 4ADB     		blt	.L82
 886              	.L62:
 887              		.loc 1 455 0 discriminator 5
 888 009a B7F5FA7F 		cmp	r7, #500
 889 009e 02DD     		ble	.L63
 890              		.loc 1 455 0 discriminator 6
ARM GAS  C:\Users\fcho544\AppData\Local\Temp\ccoaNIzY.s 			page 25


 891 00a0 B9F5FA7F 		cmp	r9, #500
 892 00a4 46DB     		blt	.L83
 893              	.L63:
 456:main.c        ****         
 457:main.c        ****             FSM = straight_left_adjust;
 458:main.c        ****             
 459:main.c        ****             
 460:main.c        ****         // straight - right sensor is out of path
 461:main.c        ****         //} else if (((left < cmp_val) && (right > cmp_val) && (back<cmp_val))|| ((left < cmp_val) 
 462:main.c        ****         }else if (((left < cmp_val) && (right > cmp_val) && (back<cmp_val))|| ((left < cmp_val) && 
 894              		.loc 1 462 0 is_stmt 1
 895 00a6 B7F5FA7F 		cmp	r7, #500
 896 00aa 05DA     		bge	.L64
 897              		.loc 1 462 0 is_stmt 0 discriminator 1
 898 00ac B9F5FA7F 		cmp	r9, #500
 899 00b0 02DD     		ble	.L64
 900              		.loc 1 462 0 discriminator 3
 901 00b2 B0F5FA7F 		cmp	r0, #500
 902 00b6 3FDB     		blt	.L84
 903              	.L64:
 904              		.loc 1 462 0 discriminator 5
 905 00b8 B7F5FA7F 		cmp	r7, #500
 906 00bc 02DA     		bge	.L65
 907              		.loc 1 462 0 discriminator 6
 908 00be B9F5FA7F 		cmp	r9, #500
 909 00c2 3BDC     		bgt	.L85
 910              	.L65:
 463:main.c        ****         
 464:main.c        ****             FSM = straight_right_adjust;
 465:main.c        ****             
 466:main.c        ****             
 467:main.c        ****         // check for INCOMPLETE LEFT turn    
 468:main.c        ****         //} else if ((leftTurn == 1)&&(back<cmp_val)) {
 469:main.c        ****         } else if ( (leftTurn == 1) && ((left<cmp_val) || (right<cmp_val) || (back<cmp_val)) ) {
 911              		.loc 1 469 0 is_stmt 1
 912 00c4 3C4B     		ldr	r3, .L103+4
 913 00c6 D3F80C31 		ldr	r3, [r3, #268]
 914 00ca 012B     		cmp	r3, #1
 915 00cc 08D1     		bne	.L66
 916              		.loc 1 469 0 is_stmt 0 discriminator 1
 917 00ce B7F5FA7F 		cmp	r7, #500
 918 00d2 35DB     		blt	.L86
 919              		.loc 1 469 0 discriminator 2
 920 00d4 B9F5FA7F 		cmp	r9, #500
 921 00d8 34DB     		blt	.L87
 922              		.loc 1 469 0 discriminator 3
 923 00da B0F5FA7F 		cmp	r0, #500
 924 00de 33DB     		blt	.L88
 925              	.L66:
 470:main.c        ****           //} else if (leftTurn == 1) {
 471:main.c        ****             // continue left turn
 472:main.c        ****             //if ((left<cmp_val) || (right<cmp_val) || (back<cmp_val)) {
 473:main.c        ****                 FSM = left_turn;             
 474:main.c        ****             //}
 475:main.c        ****             
 476:main.c        ****         // check for INCOMPLETE RIGHT turn  
 477:main.c        ****         //} else if ( (rightTurn == 1) && ((left<cmp_val) || (right<cmp_val) || (back<cmp_val)) ) {
ARM GAS  C:\Users\fcho544\AppData\Local\Temp\ccoaNIzY.s 			page 26


 478:main.c        ****          } else if (rightTurn == 1) {
 926              		.loc 1 478 0 is_stmt 1
 927 00e0 354A     		ldr	r2, .L103+4
 928 00e2 D2F81021 		ldr	r2, [r2, #272]
 929 00e6 012A     		cmp	r2, #1
 930 00e8 09D1     		bne	.L67
 479:main.c        ****             
 480:main.c        ****             if ((left<cmp_val) || (right<cmp_val) || (back<cmp_val)) {
 931              		.loc 1 480 0
 932 00ea B7F5FA7F 		cmp	r7, #500
 933 00ee 2DDB     		blt	.L89
 934              		.loc 1 480 0 is_stmt 0 discriminator 1
 935 00f0 B9F5FA7F 		cmp	r9, #500
 936 00f4 2CDB     		blt	.L90
 937              		.loc 1 480 0 discriminator 2
 938 00f6 B0F5FA7F 		cmp	r0, #500
 939 00fa 2BDB     		blt	.L91
 940 00fc 2FE0     		b	.L59
 941              	.L67:
 481:main.c        ****             // continue right turn
 482:main.c        ****             FSM = right_turn;
 483:main.c        ****             
 484:main.c        ****             }
 485:main.c        ****             
 486:main.c        ****         // if no sensors are inside path, check which turn flag is currently high and adjust
 487:main.c        ****         } else if ( (far_left && left && right && far_right && front && back) > cmp_val  ) {
 488:main.c        ****             
 489:main.c        ****             if (leftTurn == 1) {
 490:main.c        ****                 FSM = left_turn;   
 491:main.c        ****             } else if (rightTurn == 1) {
 492:main.c        ****                 FSM = right_turn;
 493:main.c        ****             } else {
 494:main.c        ****                 FSM = straight;
 495:main.c        ****             }
 496:main.c        ****                        
 497:main.c        ****             
 498:main.c        ****         //} else if ( (front < cmp_val) && (left<cmp_val) && (right<cmp_val)) { //  CHECK IF TURN C
 499:main.c        ****         } else if ( (front < cmp_val)  && (  (left<cmp_val) || (right<cmp_val)   )) {    // TRY THI
 942              		.loc 1 499 0 is_stmt 1
 943 00fe BAF5FA7F 		cmp	r10, #500
 944 0102 0DDA     		bge	.L70
 945              		.loc 1 499 0 is_stmt 0 discriminator 1
 946 0104 B7F5FA7F 		cmp	r7, #500
 947 0108 02DB     		blt	.L71
 948              		.loc 1 499 0 discriminator 2
 949 010a B9F5FA7F 		cmp	r9, #500
 950 010e 07DA     		bge	.L70
 951              	.L71:
 500:main.c        ****         //} else if (front < cmp_val) {
 501:main.c        ****             
 502:main.c        ****             // turn is complete set both flags to 0
 503:main.c        ****             rightTurn = 0;
 952              		.loc 1 503 0 is_stmt 1
 953 0110 294B     		ldr	r3, .L103+4
 954 0112 0022     		movs	r2, #0
 955 0114 C3F81021 		str	r2, [r3, #272]
 504:main.c        ****             leftTurn = 0;
ARM GAS  C:\Users\fcho544\AppData\Local\Temp\ccoaNIzY.s 			page 27


 956              		.loc 1 504 0
 957 0118 C3F80C21 		str	r2, [r3, #268]
 958              	.LVL107:
 505:main.c        ****             FSM = straight;
 959              		.loc 1 505 0
 960 011c 0225     		movs	r5, #2
 961 011e 1EE0     		b	.L59
 962              	.LVL108:
 963              	.L70:
 506:main.c        ****             
 507:main.c        ****            
 508:main.c        **** 
 509:main.c        ****         } else {// LOWEST PRIORITY (IDK STATE)
 510:main.c        ****             //FSM = stop;
 511:main.c        ****             
 512:main.c        ****             
 513:main.c        ****             if (leftTurn == 1) {
 964              		.loc 1 513 0
 965 0120 012B     		cmp	r3, #1
 966 0122 19D0     		beq	.L100
 514:main.c        ****                 FSM = left_turn;   
 515:main.c        ****             } else if (rightTurn == 1) {
 967              		.loc 1 515 0
 968 0124 012A     		cmp	r2, #1
 969 0126 19D1     		bne	.L101
 516:main.c        ****                 FSM = right_turn;
 970              		.loc 1 516 0
 971 0128 0125     		movs	r5, #1
 972              	.LVL109:
 973 012a 18E0     		b	.L59
 974              	.LVL110:
 975              	.L81:
 448:main.c        ****         
 976              		.loc 1 448 0
 977 012c 0225     		movs	r5, #2
 978              	.LVL111:
 979 012e 16E0     		b	.L59
 980              	.LVL112:
 981              	.L82:
 457:main.c        ****             
 982              		.loc 1 457 0
 983 0130 0425     		movs	r5, #4
 984              	.LVL113:
 985 0132 14E0     		b	.L59
 986              	.LVL114:
 987              	.L83:
 988 0134 0425     		movs	r5, #4
 989              	.LVL115:
 990 0136 12E0     		b	.L59
 991              	.LVL116:
 992              	.L84:
 464:main.c        ****             
 993              		.loc 1 464 0
 994 0138 0525     		movs	r5, #5
 995              	.LVL117:
 996 013a 10E0     		b	.L59
 997              	.LVL118:
ARM GAS  C:\Users\fcho544\AppData\Local\Temp\ccoaNIzY.s 			page 28


 998              	.L85:
 999 013c 0525     		movs	r5, #5
 1000              	.LVL119:
 1001 013e 0EE0     		b	.L59
 1002              	.LVL120:
 1003              	.L86:
 473:main.c        ****             //}
 1004              		.loc 1 473 0
 1005 0140 0025     		movs	r5, #0
 1006              	.LVL121:
 1007 0142 0CE0     		b	.L59
 1008              	.LVL122:
 1009              	.L87:
 1010 0144 0025     		movs	r5, #0
 1011              	.LVL123:
 1012 0146 0AE0     		b	.L59
 1013              	.LVL124:
 1014              	.L88:
 1015 0148 0025     		movs	r5, #0
 1016              	.LVL125:
 1017 014a 08E0     		b	.L59
 1018              	.LVL126:
 1019              	.L89:
 482:main.c        ****             
 1020              		.loc 1 482 0
 1021 014c 0125     		movs	r5, #1
 1022              	.LVL127:
 1023 014e 06E0     		b	.L59
 1024              	.LVL128:
 1025              	.L90:
 1026 0150 0125     		movs	r5, #1
 1027              	.LVL129:
 1028 0152 04E0     		b	.L59
 1029              	.LVL130:
 1030              	.L91:
 1031 0154 0125     		movs	r5, #1
 1032              	.LVL131:
 1033 0156 02E0     		b	.L59
 1034              	.LVL132:
 1035              	.L100:
 514:main.c        ****             } else if (rightTurn == 1) {
 1036              		.loc 1 514 0
 1037 0158 0025     		movs	r5, #0
 1038              	.LVL133:
 1039 015a 00E0     		b	.L59
 1040              	.LVL134:
 1041              	.L101:
 517:main.c        ****             } else {
 518:main.c        ****                 FSM = stop;
 1042              		.loc 1 518 0
 1043 015c 0325     		movs	r5, #3
 1044              	.LVL135:
 1045              	.L59:
 519:main.c        ****             }
 520:main.c        ****         }
 521:main.c        ****         
 522:main.c        **** //        switch(FSM) {
ARM GAS  C:\Users\fcho544\AppData\Local\Temp\ccoaNIzY.s 			page 29


 523:main.c        **** //            case straight:
 524:main.c        **** //                usbPutString("GOING STRAIGHT!!\n");
 525:main.c        **** //                break;
 526:main.c        **** //            case right_turn:
 527:main.c        **** //                usbPutString("GOING RIGHT!!\n");
 528:main.c        **** //                break;
 529:main.c        **** //            
 530:main.c        **** //            case left_turn:
 531:main.c        **** //                usbPutString("GOING LEFT!!\n");
 532:main.c        **** //                break;
 533:main.c        **** //                
 534:main.c        **** //            case stop:
 535:main.c        **** //                usbPutString("STOPPED!!\n");
 536:main.c        **** //                break;
 537:main.c        **** //        }
 538:main.c        **** 
 539:main.c        **** 
 540:main.c        **** 
 541:main.c        ****         
 542:main.c        ****         
 543:main.c        ****         switch(FSM) {
 1046              		.loc 1 543 0
 1047 015e 052D     		cmp	r5, #5
 1048 0160 3FF65CAF 		bhi	.L56
 1049 0164 DFE805F0 		tbb	[pc, r5]
 1050              	.L73:
 1051 0168 0C       		.byte	(.L72-.L73)/2
 1052 0169 17       		.byte	(.L74-.L73)/2
 1053 016a 03       		.byte	(.L75-.L73)/2
 1054 016b 22       		.byte	(.L76-.L73)/2
 1055 016c 06       		.byte	(.L77-.L73)/2
 1056 016d 09       		.byte	(.L78-.L73)/2
 1057              		.p2align 1
 1058              	.L75:
 544:main.c        ****          
 545:main.c        ****             case straight:
 546:main.c        ****                 //updateMotorSpeed(50);
 547:main.c        ****                 // speed compensation
 548:main.c        ****                 GoStraight();
 1059              		.loc 1 548 0
 1060 016e FFF7FEFF 		bl	GoStraight
 1061              	.LVL136:
 549:main.c        ****                 break;
 1062              		.loc 1 549 0
 1063 0172 53E7     		b	.L56
 1064              	.LVL137:
 1065              	.L77:
 550:main.c        ****                 
 551:main.c        ****                 
 552:main.c        ****             // adjust when left sensor is out of path
 553:main.c        ****             case straight_left_adjust:
 554:main.c        ****                 ArrangeToLeft();
 1066              		.loc 1 554 0
 1067 0174 FFF7FEFF 		bl	ArrangeToLeft
 1068              	.LVL138:
 555:main.c        ****                 break;
 1069              		.loc 1 555 0
ARM GAS  C:\Users\fcho544\AppData\Local\Temp\ccoaNIzY.s 			page 30


 1070 0178 50E7     		b	.L56
 1071              	.LVL139:
 1072              	.L78:
 556:main.c        ****                 
 557:main.c        ****                 
 558:main.c        ****             // adjust when right sensor is out of path
 559:main.c        ****             case straight_right_adjust:
 560:main.c        ****                 ArrangeToRight();
 1073              		.loc 1 560 0
 1074 017a FFF7FEFF 		bl	ArrangeToRight
 1075              	.LVL140:
 561:main.c        ****                 break;
 1076              		.loc 1 561 0
 1077 017e 4DE7     		b	.L56
 1078              	.LVL141:
 1079              	.L72:
 562:main.c        ****                 
 563:main.c        **** 
 564:main.c        ****             case left_turn:
 565:main.c        ****                 
 566:main.c        ****                 /*
 567:main.c        ****                 // Set Motor Speeds ...
 568:main.c        ****                 updateMotorSpeed_Left(128);
 569:main.c        ****                 
 570:main.c        ****                 // Read front sensor into val 
 571:main.c        ****                 front = findMaximum(array);
 572:main.c        ****                 
 573:main.c        ****            
 574:main.c        ****                  while(front > cmp_val) {
 575:main.c        ****                     front = findMaximum(array);
 576:main.c        ****                 }
 577:main.c        ****                 
 578:main.c        ****                 updateMotorSpeed(128);
 579:main.c        ****                 //updateMotorSpeed_Left(40);
 580:main.c        ****                 */
 581:main.c        ****                 
 582:main.c        ****                 
 583:main.c        ****                 //updateMotorSpeed_Left(128);
 584:main.c        ****                 // normal speed
 585:main.c        ****                 //PWM_leftmotor_WriteCompare1(0);
 586:main.c        ****                 //PWM_leftmotor_WriteCompare2(87);
 587:main.c        ****                 
 588:main.c        ****                 
 589:main.c        ****                 //PWM_rightmotor_WriteCompare1(80);
 590:main.c        ****                 //PWM_rightmotor_WriteCompare2(0);       
 591:main.c        ****                 
 592:main.c        ****                 // while front sensor is out of path
 593:main.c        ****                 // need to update the data that is read into sensor 
 594:main.c        ****                 //front = findMaximum(array);
 595:main.c        ****                 //while(front > cmp_val) {
 596:main.c        ****                   
 597:main.c        ****                     //front = findMaximum(array);
 598:main.c        ****                     
 599:main.c        ****                     //if (front > cmp_val) {
 600:main.c        ****                     
 601:main.c        ****                     //    DoRightTurn();
 602:main.c        ****                     //}
ARM GAS  C:\Users\fcho544\AppData\Local\Temp\ccoaNIzY.s 			page 31


 603:main.c        ****                     
 604:main.c        ****                     
 605:main.c        ****                 //}
 606:main.c        ****                 
 607:main.c        ****                 //updateMotorSpeed(128);
 608:main.c        ****                 if (leftTurn == 1) {
 1080              		.loc 1 608 0
 1081 0180 0D4B     		ldr	r3, .L103+4
 1082 0182 D3F80C31 		ldr	r3, [r3, #268]
 1083 0186 012B     		cmp	r3, #1
 1084 0188 02D1     		bne	.L79
 609:main.c        ****                     DoLeftTurn();
 1085              		.loc 1 609 0
 1086 018a FFF7FEFF 		bl	DoLeftTurn
 1087              	.LVL142:
 1088 018e 45E7     		b	.L56
 1089              	.LVL143:
 1090              	.L79:
 610:main.c        ****                 } else {
 611:main.c        ****                  GoStraight();   
 1091              		.loc 1 611 0
 1092 0190 FFF7FEFF 		bl	GoStraight
 1093              	.LVL144:
 1094 0194 42E7     		b	.L56
 1095              	.LVL145:
 1096              	.L74:
 612:main.c        ****                 }
 613:main.c        **** 
 614:main.c        ****    
 615:main.c        ****                 break;
 616:main.c        ****                 
 617:main.c        ****             case right_turn:
 618:main.c        ****                 //updateMotorSpeed(10);
 619:main.c        **** 
 620:main.c        ****                 //if ((left == 0)&&(right ==0)&&(back==0)) {
 621:main.c        ****                 
 622:main.c        ****                 //DoRightTurn();
 623:main.c        ****                                     // normal speed
 624:main.c        ****                 //PWM_leftmotor_WriteCompare1(0);
 625:main.c        ****                 //PWM_leftmotor_WriteCompare2(87);
 626:main.c        ****                 
 627:main.c        ****                 
 628:main.c        ****                 //PWM_rightmotor_WriteCompare1(80);
 629:main.c        ****                 //PWM_rightmotor_WriteCompare2(0);       
 630:main.c        ****                 
 631:main.c        ****                 // while front sensor is out of path
 632:main.c        ****                 // need to update the data that is read into sensor 
 633:main.c        ****                 //front = findMaximum(array);
 634:main.c        ****                 //left = findMaximum(array2);
 635:main.c        ****                 //right = findMaximum(array3);
 636:main.c        ****                 //while(front > cmp_val) {
 637:main.c        ****                     
 638:main.c        ****                 //    front = findMaximum(array);
 639:main.c        ****                     
 640:main.c        ****                     //if (front > cmp_val) {
 641:main.c        ****                     
 642:main.c        ****                     //    DoRightTurn();
ARM GAS  C:\Users\fcho544\AppData\Local\Temp\ccoaNIzY.s 			page 32


 643:main.c        ****                     //}
 644:main.c        ****                 //}
 645:main.c        ****                 
 646:main.c        ****                 //while(left > cmp_val) {
 647:main.c        ****                 //    left = findMaximum(array2);
 648:main.c        ****                 //}
 649:main.c        ****                 
 650:main.c        ****                 //while(right > cmp_val) {
 651:main.c        ****                 //    right = findMaximum(array3);
 652:main.c        ****                 //}                
 653:main.c        ****                 
 654:main.c        ****                 if (rightTurn == 1) {
 1097              		.loc 1 654 0
 1098 0196 084B     		ldr	r3, .L103+4
 1099 0198 D3F81031 		ldr	r3, [r3, #272]
 1100 019c 012B     		cmp	r3, #1
 1101 019e 02D1     		bne	.L80
 655:main.c        ****                     //DoRightTurn(rightTurn);
 656:main.c        ****                     DoRightTurn();
 1102              		.loc 1 656 0
 1103 01a0 FFF7FEFF 		bl	DoRightTurn
 1104              	.LVL146:
 1105 01a4 3AE7     		b	.L56
 1106              	.LVL147:
 1107              	.L80:
 657:main.c        ****                 } else {
 658:main.c        ****                     GoStraight();
 1108              		.loc 1 658 0
 1109 01a6 FFF7FEFF 		bl	GoStraight
 1110              	.LVL148:
 1111 01aa 37E7     		b	.L56
 1112              	.LVL149:
 1113              	.L76:
 659:main.c        ****                 }
 660:main.c        ****                 break;
 661:main.c        ****                 
 662:main.c        ****                 //if ((left < cmp_val) && (right<cmp_val) && (front<cmp_val)) {
 663:main.c        ****                     
 664:main.c        ****                 // rightTurn = 0;   
 665:main.c        ****                     
 666:main.c        ****                 //}
 667:main.c        ****                 
 668:main.c        ****                 //} else {
 669:main.c        ****                    // normal speed
 670:main.c        ****                 //   PWM_leftmotor_WriteCompare1(0);
 671:main.c        ****                 //   PWM_leftmotor_WriteCompare2(87);
 672:main.c        ****                 
 673:main.c        ****                 
 674:main.c        ****                 //   PWM_rightmotor_WriteCompare1(80);
 675:main.c        ****                 //   PWM_rightmotor_WriteCompare2(0);  
 676:main.c        ****                     
 677:main.c        ****                 //}
 678:main.c        ****                 
 679:main.c        ****                 //DoRightTurn();
 680:main.c        ****                 
 681:main.c        ****                 //break;
 682:main.c        ****                 
ARM GAS  C:\Users\fcho544\AppData\Local\Temp\ccoaNIzY.s 			page 33


 683:main.c        ****             case stop:
 684:main.c        ****                 //updateMotorSpeed_Left(10);
 685:main.c        ****                 Stop();
 1114              		.loc 1 685 0
 1115 01ac FFF7FEFF 		bl	Stop
 1116              	.LVL150:
 686:main.c        ****                 break;
 1117              		.loc 1 686 0
 1118 01b0 34E7     		b	.L56
 1119              	.L104:
 1120 01b2 00BF     		.align	2
 1121              	.L103:
 1122 01b4 00000000 		.word	eoc1
 1123 01b8 00000000 		.word	.LANCHOR0
 1124              	.LBE12:
 1125              		.cfi_endproc
 1126              	.LFE78:
 1127              		.size	main, .-main
 1128              		.global	finishTurn
 1129              		.global	rightTurn
 1130              		.global	leftTurn
 1131              		.global	rightDuty
 1132              		.global	leftDuty
 1133              		.global	startDuty
 1134              		.global	offset
 1135              		.global	flag33
 1136              		.global	speed
 1137              		.global	motor6
 1138              		.global	motor5
 1139              		.global	motor4
 1140              		.global	motor3
 1141              		.global	motor2
 1142              		.global	motor1
 1143              		.global	array6
 1144              		.global	array5
 1145              		.global	array4
 1146              		.global	array3
 1147              		.global	array2
 1148              		.global	array
 1149              		.global	count6
 1150              		.global	count5
 1151              		.global	count4
 1152              		.global	count3
 1153              		.global	count2
 1154              		.global	count1
 1155              		.global	turnLock
 1156              		.global	flag6
 1157              		.global	flag5
 1158              		.global	flag4
 1159              		.global	flag3
 1160              		.global	flag2
 1161              		.global	flag
 1162              		.data
 1163              		.align	2
 1164              		.set	.LANCHOR1,. + 0
 1165              		.type	leftDuty, %object
 1166              		.size	leftDuty, 4
ARM GAS  C:\Users\fcho544\AppData\Local\Temp\ccoaNIzY.s 			page 34


 1167              	leftDuty:
 1168 0000 61000000 		.word	97
 1169              		.type	offset, %object
 1170              		.size	offset, 4
 1171              	offset:
 1172 0004 05000000 		.word	5
 1173              		.type	startDuty, %object
 1174              		.size	startDuty, 4
 1175              	startDuty:
 1176 0008 5A000000 		.word	90
 1177              		.bss
 1178              		.align	2
 1179              		.set	.LANCHOR0,. + 0
 1180              		.type	count1, %object
 1181              		.size	count1, 4
 1182              	count1:
 1183 0000 00000000 		.space	4
 1184              		.type	array, %object
 1185              		.size	array, 40
 1186              	array:
 1187 0004 00000000 		.space	40
 1187      00000000 
 1187      00000000 
 1187      00000000 
 1187      00000000 
 1188              		.type	count2, %object
 1189              		.size	count2, 4
 1190              	count2:
 1191 002c 00000000 		.space	4
 1192              		.type	array2, %object
 1193              		.size	array2, 40
 1194              	array2:
 1195 0030 00000000 		.space	40
 1195      00000000 
 1195      00000000 
 1195      00000000 
 1195      00000000 
 1196              		.type	count3, %object
 1197              		.size	count3, 4
 1198              	count3:
 1199 0058 00000000 		.space	4
 1200              		.type	array3, %object
 1201              		.size	array3, 40
 1202              	array3:
 1203 005c 00000000 		.space	40
 1203      00000000 
 1203      00000000 
 1203      00000000 
 1203      00000000 
 1204              		.type	count4, %object
 1205              		.size	count4, 4
 1206              	count4:
 1207 0084 00000000 		.space	4
 1208              		.type	array4, %object
 1209              		.size	array4, 40
 1210              	array4:
 1211 0088 00000000 		.space	40
ARM GAS  C:\Users\fcho544\AppData\Local\Temp\ccoaNIzY.s 			page 35


 1211      00000000 
 1211      00000000 
 1211      00000000 
 1211      00000000 
 1212              		.type	count5, %object
 1213              		.size	count5, 4
 1214              	count5:
 1215 00b0 00000000 		.space	4
 1216              		.type	array5, %object
 1217              		.size	array5, 40
 1218              	array5:
 1219 00b4 00000000 		.space	40
 1219      00000000 
 1219      00000000 
 1219      00000000 
 1219      00000000 
 1220              		.type	count6, %object
 1221              		.size	count6, 4
 1222              	count6:
 1223 00dc 00000000 		.space	4
 1224              		.type	array6, %object
 1225              		.size	array6, 40
 1226              	array6:
 1227 00e0 00000000 		.space	40
 1227      00000000 
 1227      00000000 
 1227      00000000 
 1227      00000000 
 1228              		.type	rightDuty, %object
 1229              		.size	rightDuty, 4
 1230              	rightDuty:
 1231 0108 00000000 		.space	4
 1232              		.type	leftTurn, %object
 1233              		.size	leftTurn, 4
 1234              	leftTurn:
 1235 010c 00000000 		.space	4
 1236              		.type	rightTurn, %object
 1237              		.size	rightTurn, 4
 1238              	rightTurn:
 1239 0110 00000000 		.space	4
 1240              		.type	finishTurn, %object
 1241              		.size	finishTurn, 4
 1242              	finishTurn:
 1243 0114 00000000 		.space	4
 1244              		.type	flag33, %object
 1245              		.size	flag33, 4
 1246              	flag33:
 1247 0118 00000000 		.space	4
 1248              		.type	speed, %object
 1249              		.size	speed, 4
 1250              	speed:
 1251 011c 00000000 		.space	4
 1252              		.type	motor6, %object
 1253              		.size	motor6, 4
 1254              	motor6:
 1255 0120 00000000 		.space	4
 1256              		.type	motor5, %object
ARM GAS  C:\Users\fcho544\AppData\Local\Temp\ccoaNIzY.s 			page 36


 1257              		.size	motor5, 4
 1258              	motor5:
 1259 0124 00000000 		.space	4
 1260              		.type	motor4, %object
 1261              		.size	motor4, 4
 1262              	motor4:
 1263 0128 00000000 		.space	4
 1264              		.type	motor3, %object
 1265              		.size	motor3, 4
 1266              	motor3:
 1267 012c 00000000 		.space	4
 1268              		.type	motor2, %object
 1269              		.size	motor2, 4
 1270              	motor2:
 1271 0130 00000000 		.space	4
 1272              		.type	motor1, %object
 1273              		.size	motor1, 4
 1274              	motor1:
 1275 0134 00000000 		.space	4
 1276              		.type	turnLock, %object
 1277              		.size	turnLock, 4
 1278              	turnLock:
 1279 0138 00000000 		.space	4
 1280              		.type	flag6, %object
 1281              		.size	flag6, 4
 1282              	flag6:
 1283 013c 00000000 		.space	4
 1284              		.type	flag5, %object
 1285              		.size	flag5, 4
 1286              	flag5:
 1287 0140 00000000 		.space	4
 1288              		.type	flag4, %object
 1289              		.size	flag4, 4
 1290              	flag4:
 1291 0144 00000000 		.space	4
 1292              		.type	flag3, %object
 1293              		.size	flag3, 4
 1294              	flag3:
 1295 0148 00000000 		.space	4
 1296              		.type	flag2, %object
 1297              		.size	flag2, 4
 1298              	flag2:
 1299 014c 00000000 		.space	4
 1300              		.type	flag, %object
 1301              		.size	flag, 4
 1302              	flag:
 1303 0150 00000000 		.space	4
 1304              		.text
 1305              	.Letext0:
 1306              		.file 2 "c:\\program files (x86)\\cypress\\psoc creator\\4.2\\psoc creator\\import\\gnu\\arm\\5.4.
 1307              		.file 3 "c:\\program files (x86)\\cypress\\psoc creator\\4.2\\psoc creator\\import\\gnu\\arm\\5.4.
 1308              		.file 4 "Generated_Source\\PSoC5/cytypes.h"
 1309              		.file 5 "Generated_Source\\PSoC5/core_cm3.h"
 1310              		.file 6 "Generated_Source\\PSoC5/ADC_SAR_Seq_1.h"
 1311              		.file 7 "Generated_Source\\PSoC5/USBUART_1_cdc.h"
 1312              		.file 8 "c:\\program files (x86)\\cypress\\psoc creator\\4.2\\psoc creator\\import\\gnu\\arm\\5.4.
 1313              		.file 9 "Generated_Source\\PSoC5/PWM_leftmotor.h"
ARM GAS  C:\Users\fcho544\AppData\Local\Temp\ccoaNIzY.s 			page 37


 1314              		.file 10 "Generated_Source\\PSoC5/PWM_rightmotor.h"
 1315              		.file 11 "Generated_Source\\PSoC5/isr_EOC_3.h"
 1316              		.file 12 "Generated_Source\\PSoC5/USBUART_1.h"
 1317              		.file 13 "Generated_Source\\PSoC5/Timer_2.h"