ARM GAS  C:\Users\xliu430\AppData\Local\Temp\ccU5WKEg.s 			page 1


   1              		.syntax unified
   2              		.cpu cortex-m3
   3              		.fpu softvfp
   4              		.eabi_attribute 20, 1
   5              		.eabi_attribute 21, 1
   6              		.eabi_attribute 23, 3
   7              		.eabi_attribute 24, 1
   8              		.eabi_attribute 25, 1
   9              		.eabi_attribute 26, 1
  10              		.eabi_attribute 30, 1
  11              		.eabi_attribute 34, 1
  12              		.eabi_attribute 18, 4
  13              		.thumb
  14              		.syntax unified
  15              		.file	"main.c"
  16              		.text
  17              	.Ltext0:
  18              		.cfi_sections	.debug_frame
  19              		.section	.text.eoc2,"ax",%progbits
  20              		.align	2
  21              		.global	eoc2
  22              		.thumb
  23              		.thumb_func
  24              		.type	eoc2, %function
  25              	eoc2:
  26              	.LFB64:
  27              		.file 1 "main.c"
   1:main.c        **** /* ========================================
   2:main.c        ****  *
   3:main.c        ****  * Copyright YOUR COMPANY, THE YEAR
   4:main.c        ****  * All Rights Reserved
   5:main.c        ****  * UNPUBLISHED, LICENSED SOFTWARE.
   6:main.c        ****  *
   7:main.c        ****  * CONFIDENTIAL AND PROPRIETARY INFORMATION
   8:main.c        ****  * WHICH IS THE PROPERTY OF your company.
   9:main.c        ****  *
  10:main.c        ****  * ========================================
  11:main.c        **** */
  12:main.c        **** #include "project.h"
  13:main.c        **** #include <stdio.h>
  14:main.c        **** #include <project.h>
  15:main.c        **** #include <string.h>
  16:main.c        ****  int flag=0;
  17:main.c        **** int flag2=0;
  18:main.c        **** int count =0;
  19:main.c        **** int count2 =0;
  20:main.c        **** int array[100] ={0};
  21:main.c        **** int array2[100] ={0};
  22:main.c        **** /*
  23:main.c        **** CY_ISR(tc_sample){
  24:main.c        **** LED_Write(~LED_Read());
  25:main.c        **** 
  26:main.c        **** ADC_SAR_1_StartConvert();
  27:main.c        **** 
  28:main.c        **** isr_TC_ClearPending();
  29:main.c        **** Timer_1_ReadStatusRegister();
  30:main.c        **** }
ARM GAS  C:\Users\xliu430\AppData\Local\Temp\ccU5WKEg.s 			page 2


  31:main.c        **** */
  32:main.c        **** 
  33:main.c        **** CY_ISR(eoc2){
  28              		.loc 1 33 0
  29              		.cfi_startproc
  30              		@ args = 0, pretend = 0, frame = 0
  31              		@ frame_needed = 0, uses_anonymous_args = 0
  32 0000 08B5     		push	{r3, lr}
  33              		.cfi_def_cfa_offset 8
  34              		.cfi_offset 3, -8
  35              		.cfi_offset 14, -4
  34:main.c        **** if(count2 < 99){
  36              		.loc 1 34 0
  37 0002 0B4B     		ldr	r3, .L5
  38 0004 1B68     		ldr	r3, [r3]
  39 0006 622B     		cmp	r3, #98
  40 0008 0BDC     		bgt	.L2
  41              	.LBB2:
  35:main.c        ****         int  val2= ADC_SAR_2_GetResult16();
  42              		.loc 1 35 0
  43 000a FFF7FEFF 		bl	ADC_SAR_2_GetResult16
  44              	.LVL0:
  36:main.c        ****         int mVolts2 = ADC_SAR_2_CountsTo_mVolts(val2);
  45              		.loc 1 36 0
  46 000e FFF7FEFF 		bl	ADC_SAR_2_CountsTo_mVolts
  47              	.LVL1:
  37:main.c        ****         array2[count2] = mVolts2;
  48              		.loc 1 37 0
  49 0012 074A     		ldr	r2, .L5
  50 0014 1368     		ldr	r3, [r2]
  51 0016 02EB8301 		add	r1, r2, r3, lsl #2
  52 001a 4860     		str	r0, [r1, #4]
  38:main.c        ****         count2++;
  53              		.loc 1 38 0
  54 001c 0133     		adds	r3, r3, #1
  55 001e 1360     		str	r3, [r2]
  56              	.LBE2:
  57 0020 08BD     		pop	{r3, pc}
  58              	.LVL2:
  59              	.L2:
  39:main.c        ****         }
  40:main.c        ****     else{
  41:main.c        ****         Timer_2_Stop();
  60              		.loc 1 41 0
  61 0022 FFF7FEFF 		bl	Timer_2_Stop
  62              	.LVL3:
  42:main.c        ****         flag2 = 1;
  63              		.loc 1 42 0
  64 0026 0122     		movs	r2, #1
  65 0028 014B     		ldr	r3, .L5
  66 002a C3F89421 		str	r2, [r3, #404]
  67 002e 08BD     		pop	{r3, pc}
  68              	.L6:
  69              		.align	2
  70              	.L5:
  71 0030 00000000 		.word	.LANCHOR0
  72              		.cfi_endproc
ARM GAS  C:\Users\xliu430\AppData\Local\Temp\ccU5WKEg.s 			page 3


  73              	.LFE64:
  74              		.size	eoc2, .-eoc2
  75              		.section	.text.eoc,"ax",%progbits
  76              		.align	2
  77              		.global	eoc
  78              		.thumb
  79              		.thumb_func
  80              		.type	eoc, %function
  81              	eoc:
  82              	.LFB65:
  43:main.c        ****     }
  44:main.c        **** }
  45:main.c        **** 
  46:main.c        **** 
  47:main.c        **** CY_ISR(eoc){
  83              		.loc 1 47 0
  84              		.cfi_startproc
  85              		@ args = 0, pretend = 0, frame = 0
  86              		@ frame_needed = 0, uses_anonymous_args = 0
  87 0000 08B5     		push	{r3, lr}
  88              		.cfi_def_cfa_offset 8
  89              		.cfi_offset 3, -8
  90              		.cfi_offset 14, -4
  48:main.c        ****     if(count < 99){
  91              		.loc 1 48 0
  92 0002 0D4B     		ldr	r3, .L11
  93 0004 D3F89831 		ldr	r3, [r3, #408]
  94 0008 622B     		cmp	r3, #98
  95 000a 0EDC     		bgt	.L8
  96              	.LBB3:
  49:main.c        ****         int  val= ADC_SAR_1_GetResult16();
  97              		.loc 1 49 0
  98 000c FFF7FEFF 		bl	ADC_SAR_1_GetResult16
  99              	.LVL4:
  50:main.c        ****         int mVolts = ADC_SAR_1_CountsTo_mVolts(val);
 100              		.loc 1 50 0
 101 0010 FFF7FEFF 		bl	ADC_SAR_1_CountsTo_mVolts
 102              	.LVL5:
  51:main.c        ****         array[count] = mVolts;
 103              		.loc 1 51 0
 104 0014 084A     		ldr	r2, .L11
 105 0016 D2F89831 		ldr	r3, [r2, #408]
 106 001a 02EB8301 		add	r1, r2, r3, lsl #2
 107 001e C1F89C01 		str	r0, [r1, #412]
  52:main.c        ****         count++;
 108              		.loc 1 52 0
 109 0022 0133     		adds	r3, r3, #1
 110 0024 C2F89831 		str	r3, [r2, #408]
 111              	.LBE3:
 112 0028 08BD     		pop	{r3, pc}
 113              	.LVL6:
 114              	.L8:
  53:main.c        ****         }
  54:main.c        ****     else{
  55:main.c        ****         Timer_1_Stop();
 115              		.loc 1 55 0
 116 002a FFF7FEFF 		bl	Timer_1_Stop
ARM GAS  C:\Users\xliu430\AppData\Local\Temp\ccU5WKEg.s 			page 4


 117              	.LVL7:
  56:main.c        ****         flag = 1;
 118              		.loc 1 56 0
 119 002e 0122     		movs	r2, #1
 120 0030 014B     		ldr	r3, .L11
 121 0032 C3F82C23 		str	r2, [r3, #812]
 122 0036 08BD     		pop	{r3, pc}
 123              	.L12:
 124              		.align	2
 125              	.L11:
 126 0038 00000000 		.word	.LANCHOR0
 127              		.cfi_endproc
 128              	.LFE65:
 129              		.size	eoc, .-eoc
 130              		.section	.text.usbPutString,"ax",%progbits
 131              		.align	2
 132              		.global	usbPutString
 133              		.thumb
 134              		.thumb_func
 135              		.type	usbPutString, %function
 136              	usbPutString:
 137              	.LFB66:
  57:main.c        ****     }
  58:main.c        **** }
  59:main.c        **** 
  60:main.c        **** void usbPutString(char *s)
  61:main.c        **** {
 138              		.loc 1 61 0
 139              		.cfi_startproc
 140              		@ args = 0, pretend = 0, frame = 0
 141              		@ frame_needed = 0, uses_anonymous_args = 0
 142              	.LVL8:
 143 0000 10B5     		push	{r4, lr}
 144              		.cfi_def_cfa_offset 8
 145              		.cfi_offset 4, -8
 146              		.cfi_offset 14, -4
 147 0002 0446     		mov	r4, r0
 148              	.LVL9:
 149              	.L14:
  62:main.c        **** // !! Assumes that *s is a string with allocated space >=64 chars     
  63:main.c        **** //  Since USB implementation retricts data packets to 64 chars, this function truncates the
  64:main.c        **** //  length to 62 char (63rd char is a '!')
  65:main.c        ****     
  66:main.c        ****     while (USBUART_1_CDCIsReady() == 0);
 150              		.loc 1 66 0 discriminator 1
 151 0004 FFF7FEFF 		bl	USBUART_1_CDCIsReady
 152              	.LVL10:
 153 0008 0028     		cmp	r0, #0
 154 000a FBD0     		beq	.L14
  67:main.c        ****     s[63]='\0';
 155              		.loc 1 67 0
 156 000c 0023     		movs	r3, #0
 157 000e 84F83F30 		strb	r3, [r4, #63]
  68:main.c        ****     s[62]='!';
 158              		.loc 1 68 0
 159 0012 2123     		movs	r3, #33
 160 0014 84F83E30 		strb	r3, [r4, #62]
ARM GAS  C:\Users\xliu430\AppData\Local\Temp\ccU5WKEg.s 			page 5


  69:main.c        ****     USBUART_1_PutData((uint8*)s,strlen(s));
 161              		.loc 1 69 0
 162 0018 2046     		mov	r0, r4
 163 001a FFF7FEFF 		bl	strlen
 164              	.LVL11:
 165 001e 81B2     		uxth	r1, r0
 166 0020 2046     		mov	r0, r4
 167 0022 FFF7FEFF 		bl	USBUART_1_PutData
 168              	.LVL12:
 169 0026 10BD     		pop	{r4, pc}
 170              		.cfi_endproc
 171              	.LFE66:
 172              		.size	usbPutString, .-usbPutString
 173              		.section	.text.findMaximum,"ax",%progbits
 174              		.align	2
 175              		.global	findMaximum
 176              		.thumb
 177              		.thumb_func
 178              		.type	findMaximum, %function
 179              	findMaximum:
 180              	.LFB67:
  70:main.c        **** }
  71:main.c        **** 
  72:main.c        **** int findMaximum(int array[100]){
 181              		.loc 1 72 0
 182              		.cfi_startproc
 183              		@ args = 0, pretend = 0, frame = 0
 184              		@ frame_needed = 0, uses_anonymous_args = 0
 185              		@ link register save eliminated.
 186              	.LVL13:
 187              	.LBB4:
  73:main.c        **** int maximum = 0;
  74:main.c        ****     for(int i = 0; i < 100; i ++){
 188              		.loc 1 74 0
 189 0000 0023     		movs	r3, #0
 190              	.LBE4:
  73:main.c        **** int maximum = 0;
 191              		.loc 1 73 0
 192 0002 1946     		mov	r1, r3
 193              	.LBB5:
 194              		.loc 1 74 0
 195 0004 05E0     		b	.L17
 196              	.LVL14:
 197              	.L19:
  75:main.c        ****         if (array[i]> maximum){
 198              		.loc 1 75 0
 199 0006 50F82320 		ldr	r2, [r0, r3, lsl #2]
 200 000a 9142     		cmp	r1, r2
 201 000c 00DA     		bge	.L18
  76:main.c        ****          maximum = array[i];
 202              		.loc 1 76 0
 203 000e 1146     		mov	r1, r2
 204              	.LVL15:
 205              	.L18:
  74:main.c        ****         if (array[i]> maximum){
 206              		.loc 1 74 0 discriminator 2
 207 0010 0133     		adds	r3, r3, #1
ARM GAS  C:\Users\xliu430\AppData\Local\Temp\ccU5WKEg.s 			page 6


 208              	.LVL16:
 209              	.L17:
  74:main.c        ****         if (array[i]> maximum){
 210              		.loc 1 74 0 is_stmt 0 discriminator 1
 211 0012 632B     		cmp	r3, #99
 212 0014 F7DD     		ble	.L19
 213              	.LBE5:
  77:main.c        ****         }  
  78:main.c        ****     }
  79:main.c        ****     return maximum;
  80:main.c        **** }
 214              		.loc 1 80 0 is_stmt 1
 215 0016 0846     		mov	r0, r1
 216              	.LVL17:
 217 0018 7047     		bx	lr
 218              		.cfi_endproc
 219              	.LFE67:
 220              		.size	findMaximum, .-findMaximum
 221 001a 00BF     		.section	.text.findMinimum,"ax",%progbits
 222              		.align	2
 223              		.global	findMinimum
 224              		.thumb
 225              		.thumb_func
 226              		.type	findMinimum, %function
 227              	findMinimum:
 228              	.LFB68:
  81:main.c        **** 
  82:main.c        **** int findMinimum(int array[100]){
 229              		.loc 1 82 0
 230              		.cfi_startproc
 231              		@ args = 0, pretend = 0, frame = 0
 232              		@ frame_needed = 0, uses_anonymous_args = 0
 233              		@ link register save eliminated.
 234              	.LVL18:
 235              	.LBB6:
  83:main.c        **** int minimum = 10000;
  84:main.c        ****     for(int i = 0; i < 100; i ++){
 236              		.loc 1 84 0
 237 0000 0023     		movs	r3, #0
 238              	.LBE6:
  83:main.c        **** int minimum = 10000;
 239              		.loc 1 83 0
 240 0002 42F21071 		movw	r1, #10000
 241              	.LBB7:
 242              		.loc 1 84 0
 243 0006 05E0     		b	.L22
 244              	.LVL19:
 245              	.L24:
  85:main.c        ****         if (array[i] < minimum){
 246              		.loc 1 85 0
 247 0008 50F82320 		ldr	r2, [r0, r3, lsl #2]
 248 000c 9142     		cmp	r1, r2
 249 000e 00DD     		ble	.L23
  86:main.c        ****          minimum = array[i];
 250              		.loc 1 86 0
 251 0010 1146     		mov	r1, r2
 252              	.LVL20:
ARM GAS  C:\Users\xliu430\AppData\Local\Temp\ccU5WKEg.s 			page 7


 253              	.L23:
  84:main.c        ****         if (array[i] < minimum){
 254              		.loc 1 84 0 discriminator 2
 255 0012 0133     		adds	r3, r3, #1
 256              	.LVL21:
 257              	.L22:
  84:main.c        ****         if (array[i] < minimum){
 258              		.loc 1 84 0 is_stmt 0 discriminator 1
 259 0014 632B     		cmp	r3, #99
 260 0016 F7DD     		ble	.L24
 261              	.LBE7:
  87:main.c        ****         }  
  88:main.c        ****     }
  89:main.c        ****     return minimum;
  90:main.c        **** }
 262              		.loc 1 90 0 is_stmt 1
 263 0018 0846     		mov	r0, r1
 264              	.LVL22:
 265 001a 7047     		bx	lr
 266              		.cfi_endproc
 267              	.LFE68:
 268              		.size	findMinimum, .-findMinimum
 269              		.section	.text.main,"ax",%progbits
 270              		.align	2
 271              		.global	main
 272              		.thumb
 273              		.thumb_func
 274              		.type	main, %function
 275              	main:
 276              	.LFB69:
  91:main.c        **** 
  92:main.c        **** 
  93:main.c        **** int main(void)
  94:main.c        **** 
  95:main.c        **** {   //isr_TC_StartEx(tc_sample);
 277              		.loc 1 95 0
 278              		.cfi_startproc
 279              		@ args = 0, pretend = 0, frame = 0
 280              		@ frame_needed = 0, uses_anonymous_args = 0
 281 0000 38B5     		push	{r3, r4, r5, lr}
 282              		.cfi_def_cfa_offset 16
 283              		.cfi_offset 3, -16
 284              		.cfi_offset 4, -12
 285              		.cfi_offset 5, -8
 286              		.cfi_offset 14, -4
  96:main.c        ****     isr_EOC_StartEx(eoc);
 287              		.loc 1 96 0
 288 0002 3048     		ldr	r0, .L35
 289 0004 FFF7FEFF 		bl	isr_EOC_StartEx
 290              	.LVL23:
  97:main.c        ****     isr_EOC2_StartEx(eoc2);
 291              		.loc 1 97 0
 292 0008 2F48     		ldr	r0, .L35+4
 293 000a FFF7FEFF 		bl	isr_EOC2_StartEx
 294              	.LVL24:
  98:main.c        **** 
  99:main.c        **** 
ARM GAS  C:\Users\xliu430\AppData\Local\Temp\ccU5WKEg.s 			page 8


 100:main.c        ****     CyGlobalIntEnable; /* Enable global interrupts. */
 295              		.loc 1 100 0
 296              		.syntax unified
 297              	@ 100 "main.c" 1
 298 000e 62B6     		CPSIE   i
 299              	@ 0 "" 2
 101:main.c        ****     
 102:main.c        ****     //USBUART_1_Start(0,USBUART_1_5V_OPERATION);
 103:main.c        ****     //while(USBUART_1_GetConfiguration() == 0){}
 104:main.c        ****     ADC_SAR_1_Start();
 300              		.loc 1 104 0
 301              		.thumb
 302              		.syntax unified
 303 0010 FFF7FEFF 		bl	ADC_SAR_1_Start
 304              	.LVL25:
 105:main.c        ****     Timer_1_Start();
 305              		.loc 1 105 0
 306 0014 FFF7FEFF 		bl	Timer_1_Start
 307              	.LVL26:
 106:main.c        ****     ADC_SAR_2_Start();
 308              		.loc 1 106 0
 309 0018 FFF7FEFF 		bl	ADC_SAR_2_Start
 310              	.LVL27:
 107:main.c        ****     Timer_2_Start();
 311              		.loc 1 107 0
 312 001c FFF7FEFF 		bl	Timer_2_Start
 313              	.LVL28:
 314              	.L30:
 108:main.c        ****     
 109:main.c        ****     
 110:main.c        ****     /* Place your initialization/startup code here (e.g. MyInst_Start()) */
 111:main.c        ****   
 112:main.c        ****     for(;;)
 113:main.c        ****     {
 114:main.c        ****         
 115:main.c        ****         
 116:main.c        ****         /* Place your application code here. */
 117:main.c        ****         if(flag == 1){
 315              		.loc 1 117 0
 316 0020 2A4B     		ldr	r3, .L35+8
 317 0022 D3F82C33 		ldr	r3, [r3, #812]
 318 0026 012B     		cmp	r3, #1
 319 0028 21D1     		bne	.L27
 320              	.LBB8:
 118:main.c        ****                      
 119:main.c        ****             
 120:main.c        ****              int result=  findMaximum(array) -findMinimum(array);
 321              		.loc 1 120 0
 322 002a 294D     		ldr	r5, .L35+12
 323 002c 2846     		mov	r0, r5
 324 002e FFF7FEFF 		bl	findMaximum
 325              	.LVL29:
 326 0032 0446     		mov	r4, r0
 327 0034 2846     		mov	r0, r5
 328 0036 FFF7FEFF 		bl	findMinimum
 329              	.LVL30:
 330 003a 201A     		subs	r0, r4, r0
ARM GAS  C:\Users\xliu430\AppData\Local\Temp\ccU5WKEg.s 			page 9


 331              	.LVL31:
 121:main.c        ****              //char send[100];
 122:main.c        ****               //sprintf(send,"%d\r\n",result);
 123:main.c        ****              // usbPutString(send);
 124:main.c        ****            
 125:main.c        ****                     if(result < 400){
 332              		.loc 1 125 0
 333 003c B0F5C87F 		cmp	r0, #400
 334 0040 03DA     		bge	.L28
 126:main.c        ****                         LED_Write(1);
 335              		.loc 1 126 0
 336 0042 0120     		movs	r0, #1
 337              	.LVL32:
 338 0044 FFF7FEFF 		bl	LED_Write
 339              	.LVL33:
 340 0048 02E0     		b	.L29
 341              	.LVL34:
 342              	.L28:
 127:main.c        ****                     }
 128:main.c        ****                     else{
 129:main.c        ****                         LED_Write(0);
 343              		.loc 1 129 0
 344 004a 0020     		movs	r0, #0
 345              	.LVL35:
 346 004c FFF7FEFF 		bl	LED_Write
 347              	.LVL36:
 348              	.L29:
 130:main.c        ****                     }
 131:main.c        ****             
 132:main.c        ****                     count = 0;
 349              		.loc 1 132 0
 350 0050 1E4C     		ldr	r4, .L35+8
 351 0052 0025     		movs	r5, #0
 352 0054 C4F89851 		str	r5, [r4, #408]
 133:main.c        ****                     memset(array,0,sizeof(array));
 353              		.loc 1 133 0
 354 0058 4FF4C872 		mov	r2, #400
 355 005c 2946     		mov	r1, r5
 356 005e 04F5CE70 		add	r0, r4, #412
 357 0062 FFF7FEFF 		bl	memset
 358              	.LVL37:
 134:main.c        ****                     flag = 0;
 359              		.loc 1 134 0
 360 0066 C4F82C53 		str	r5, [r4, #812]
 135:main.c        ****                     Timer_1_Start();
 361              		.loc 1 135 0
 362 006a FFF7FEFF 		bl	Timer_1_Start
 363              	.LVL38:
 364              	.L27:
 365              	.LBE8:
 136:main.c        ****     }
 137:main.c        ****         
 138:main.c        ****         
 139:main.c        ****       if(flag2 == 1){
 366              		.loc 1 139 0
 367 006e 174B     		ldr	r3, .L35+8
 368 0070 D3F89431 		ldr	r3, [r3, #404]
ARM GAS  C:\Users\xliu430\AppData\Local\Temp\ccU5WKEg.s 			page 10


 369 0074 012B     		cmp	r3, #1
 370 0076 D3D1     		bne	.L30
 371              	.LBB9:
 140:main.c        ****                      
 141:main.c        ****             
 142:main.c        ****                  int result2=  findMaximum(array2) -findMinimum(array2);
 372              		.loc 1 142 0
 373 0078 164D     		ldr	r5, .L35+16
 374 007a 2846     		mov	r0, r5
 375 007c FFF7FEFF 		bl	findMaximum
 376              	.LVL39:
 377 0080 0446     		mov	r4, r0
 378 0082 2846     		mov	r0, r5
 379 0084 FFF7FEFF 		bl	findMinimum
 380              	.LVL40:
 381 0088 201A     		subs	r0, r4, r0
 382              	.LVL41:
 143:main.c        ****                 // char send[100];
 144:main.c        ****                  //sprintf(send,"%d\r\n",result2);
 145:main.c        ****                  //usbPutString(send);
 146:main.c        ****                
 147:main.c        ****                         if(result2 < 400){
 383              		.loc 1 147 0
 384 008a B0F5C87F 		cmp	r0, #400
 385 008e 03DA     		bge	.L31
 148:main.c        ****                             LED_1_Write(1);
 386              		.loc 1 148 0
 387 0090 0120     		movs	r0, #1
 388              	.LVL42:
 389 0092 FFF7FEFF 		bl	LED_1_Write
 390              	.LVL43:
 391 0096 02E0     		b	.L32
 392              	.LVL44:
 393              	.L31:
 149:main.c        ****                         }
 150:main.c        ****                         else{
 151:main.c        ****                             LED_1_Write(0);
 394              		.loc 1 151 0
 395 0098 0020     		movs	r0, #0
 396              	.LVL45:
 397 009a FFF7FEFF 		bl	LED_1_Write
 398              	.LVL46:
 399              	.L32:
 152:main.c        ****                         }
 153:main.c        ****                 
 154:main.c        ****                         count2 = 0;
 400              		.loc 1 154 0
 401 009e 0B4C     		ldr	r4, .L35+8
 402 00a0 0025     		movs	r5, #0
 403 00a2 2560     		str	r5, [r4]
 155:main.c        ****                         memset(array,0,sizeof(array2));
 404              		.loc 1 155 0
 405 00a4 4FF4C872 		mov	r2, #400
 406 00a8 2946     		mov	r1, r5
 407 00aa 04F5CE70 		add	r0, r4, #412
 408 00ae FFF7FEFF 		bl	memset
 409              	.LVL47:
ARM GAS  C:\Users\xliu430\AppData\Local\Temp\ccU5WKEg.s 			page 11


 156:main.c        ****                         flag2 = 0;
 410              		.loc 1 156 0
 411 00b2 C4F89451 		str	r5, [r4, #404]
 157:main.c        ****                         Timer_2_Start();
 412              		.loc 1 157 0
 413 00b6 FFF7FEFF 		bl	Timer_2_Start
 414              	.LVL48:
 158:main.c        **** 
 159:main.c        **** 
 160:main.c        ****     
 161:main.c        ****             CyDelay(1);      
 415              		.loc 1 161 0
 416 00ba 0120     		movs	r0, #1
 417 00bc FFF7FEFF 		bl	CyDelay
 418              	.LVL49:
 419 00c0 AEE7     		b	.L30
 420              	.L36:
 421 00c2 00BF     		.align	2
 422              	.L35:
 423 00c4 00000000 		.word	eoc
 424 00c8 00000000 		.word	eoc2
 425 00cc 00000000 		.word	.LANCHOR0
 426 00d0 9C010000 		.word	.LANCHOR0+412
 427 00d4 04000000 		.word	.LANCHOR0+4
 428              	.LBE9:
 429              		.cfi_endproc
 430              	.LFE69:
 431              		.size	main, .-main
 432              		.global	array2
 433              		.global	array
 434              		.global	count2
 435              		.global	count
 436              		.global	flag2
 437              		.global	flag
 438              		.bss
 439              		.align	2
 440              		.set	.LANCHOR0,. + 0
 441              		.type	count2, %object
 442              		.size	count2, 4
 443              	count2:
 444 0000 00000000 		.space	4
 445              		.type	array2, %object
 446              		.size	array2, 400
 447              	array2:
 448 0004 00000000 		.space	400
 448      00000000 
 448      00000000 
 448      00000000 
 448      00000000 
 449              		.type	flag2, %object
 450              		.size	flag2, 4
 451              	flag2:
 452 0194 00000000 		.space	4
 453              		.type	count, %object
 454              		.size	count, 4
 455              	count:
 456 0198 00000000 		.space	4
ARM GAS  C:\Users\xliu430\AppData\Local\Temp\ccU5WKEg.s 			page 12


 457              		.type	array, %object
 458              		.size	array, 400
 459              	array:
 460 019c 00000000 		.space	400
 460      00000000 
 460      00000000 
 460      00000000 
 460      00000000 
 461              		.type	flag, %object
 462              		.size	flag, 4
 463              	flag:
 464 032c 00000000 		.space	4
 465              		.text
 466              	.Letext0:
 467              		.file 2 "c:\\program files (x86)\\cypress\\psoc creator\\4.2\\psoc creator\\import\\gnu\\arm\\5.4.
 468              		.file 3 "c:\\program files (x86)\\cypress\\psoc creator\\4.2\\psoc creator\\import\\gnu\\arm\\5.4.
 469              		.file 4 "Generated_Source\\PSoC5/cytypes.h"
 470              		.file 5 "Generated_Source\\PSoC5/core_cm3.h"
 471              		.file 6 "Generated_Source\\PSoC5/ADC_SAR_2.h"
 472              		.file 7 "Generated_Source\\PSoC5/Timer_2.h"
 473              		.file 8 "Generated_Source\\PSoC5/ADC_SAR_1.h"
 474              		.file 9 "Generated_Source\\PSoC5/Timer_1.h"
 475              		.file 10 "Generated_Source\\PSoC5/USBUART_1_cdc.h"
 476              		.file 11 "c:\\program files (x86)\\cypress\\psoc creator\\4.2\\psoc creator\\import\\gnu\\arm\\5.4
 477              		.file 12 "Generated_Source\\PSoC5/LED.h"
 478              		.file 13 "Generated_Source\\PSoC5/LED_1.h"
 479              		.file 14 "Generated_Source\\PSoC5/CyLib.h"
 480              		.file 15 "Generated_Source\\PSoC5/isr_EOC.h"
 481              		.file 16 "Generated_Source\\PSoC5/isr_EOC2.h"